ARM GAS  C:\Users\JOHNSO~1\AppData\Local\Temp\cc95L8fq.s 			page 1


   1              		.cpu cortex-m0
   2              		.fpu softvfp
   3              		.eabi_attribute 20, 1
   4              		.eabi_attribute 21, 1
   5              		.eabi_attribute 23, 3
   6              		.eabi_attribute 24, 1
   7              		.eabi_attribute 25, 1
   8              		.eabi_attribute 26, 1
   9              		.eabi_attribute 30, 6
  10              		.eabi_attribute 34, 0
  11              		.eabi_attribute 18, 4
  12              		.code	16
  13              		.file	"main.c"
  14              		.text
  15              	.Ltext0:
  16              		.cfi_sections	.debug_frame
  17              		.comm	SpiReg,20,4
  18              		.section	.text.main,"ax",%progbits
  19              		.align	2
  20              		.global	main
  21              		.code	16
  22              		.thumb_func
  23              		.type	main, %function
  24              	main:
  25              	.LFB33:
  26              		.file 1 ".\\main.c"
   1:.\main.c      **** /* ========================================
   2:.\main.c      ****  * 2015 BYU Mars Rover
   3:.\main.c      ****  * Dynamixel Wrist PWM to UART Driver
   4:.\main.c      ****  * 
   5:.\main.c      ****  * 
   6:.\main.c      ****  * Copyright BYU Mars Rover Team, 2015
   7:.\main.c      ****  * All Rights Reserved
   8:.\main.c      ****  * UNPUBLISHED, LICENSED SOFTWARE.
   9:.\main.c      ****  *
  10:.\main.c      ****  *
  11:.\main.c      ****  *
  12:.\main.c      ****  * ========================================
  13:.\main.c      **** */
  14:.\main.c      **** #include <project.h>
  15:.\main.c      **** 
  16:.\main.c      **** typedef union SPIReg
  17:.\main.c      **** {
  18:.\main.c      ****     uint8 RegArray[20];
  19:.\main.c      ****     // 
  20:.\main.c      ****     struct
  21:.\main.c      ****     {
  22:.\main.c      ****         uint16 base_rotate_pos1;
  23:.\main.c      ****         uint16 shoulder_pos;
  24:.\main.c      ****         uint16 elbow_pos;  
  25:.\main.c      ****         uint16 wrist_rotate_pos; //Value between 1000 and 2000 (approximate)
  26:.\main.c      ****         uint16 wrist_flap_pos; //Value between 1000 and 2000 (approximate)
  27:.\main.c      ****         uint16 claw_dir;  //0 Neutral, 1 Closing, 2 Opening
  28:.\main.c      ****         uint16 claw_wheels;  //0 Neutral, 1 Closing, 2 Opening
  29:.\main.c      ****         uint16 checksum;
  30:.\main.c      ****         
  31:.\main.c      ****     }SPIReg_struct;
ARM GAS  C:\Users\JOHNSO~1\AppData\Local\Temp\cc95L8fq.s 			page 2


  32:.\main.c      ****     
  33:.\main.c      **** }SPIReg;
  34:.\main.c      **** 
  35:.\main.c      **** SPIReg SpiReg;
  36:.\main.c      **** 
  37:.\main.c      **** void ServoGoalPosition( uint8 servoID, uint16 position);
  38:.\main.c      **** void ServoSpeed( uint8 servoID, uint16 speed);
  39:.\main.c      **** void ReadRequest(uint8 id, uint16 address, uint8 length);
  40:.\main.c      **** void UartWriteLED( uint8 ledvalue);
  41:.\main.c      **** void SetServoTorque( uint8 servoID, uint16 torque);
  42:.\main.c      **** 
  43:.\main.c      **** int main()
  44:.\main.c      **** {
  27              		.loc 1 44 0
  28              		.cfi_startproc
  29 0000 80B5     		push	{r7, lr}
  30              	.LCFI0:
  31              		.cfi_def_cfa_offset 8
  32              		.cfi_offset 7, -8
  33              		.cfi_offset 14, -4
  34 0002 82B0     		sub	sp, sp, #8
  35              	.LCFI1:
  36              		.cfi_def_cfa_offset 16
  37 0004 00AF     		add	r7, sp, #0
  38              	.LCFI2:
  39              		.cfi_def_cfa_register 7
  45:.\main.c      **** 
  46:.\main.c      ****     UART_1_Start();
  40              		.loc 1 46 0
  41 0006 FFF7FEFF 		bl	UART_1_Start
  47:.\main.c      ****     Timer_1_Start();
  42              		.loc 1 47 0
  43 000a FFF7FEFF 		bl	Timer_1_Start
  48:.\main.c      ****     Timer_2_Start();
  44              		.loc 1 48 0
  45 000e FFF7FEFF 		bl	Timer_2_Start
  49:.\main.c      ****     ServoSpeed(0xFE, 100);
  46              		.loc 1 49 0
  47 0012 FE20     		mov	r0, #254
  48 0014 6421     		mov	r1, #100
  49 0016 FFF7FEFF 		bl	ServoSpeed
  50:.\main.c      ****     
  51:.\main.c      ****     
  52:.\main.c      ****      CyGlobalIntEnable; // Uncomment this line to enable global interrupts. */
  50              		.loc 1 52 0
  51              	@ 52 ".\main.c" 1
  52 001a 62B6     		CPSIE   i
  53              	@ 0 "" 2
  54              		.code	16
  55 001c 00E0     		b	.L5
  56              	.L6:
  53:.\main.c      ****     for(;;)
  54:.\main.c      ****     {
  55:.\main.c      ****         
  56:.\main.c      ****         uint16 timer1 = Timer_1_ReadCapture();
  57:.\main.c      ****         if (timer1 >= 1000 && timer1 <= 2000){
  58:.\main.c      ****             CyDelay(4);
ARM GAS  C:\Users\JOHNSO~1\AppData\Local\Temp\cc95L8fq.s 			page 3


  59:.\main.c      ****             ServoGoalPosition(0x02, timer1);
  60:.\main.c      ****             LED_Write(1);
  61:.\main.c      ****             
  62:.\main.c      ****         }
  63:.\main.c      ****         else{
  64:.\main.c      ****             LED_Write(0);
  65:.\main.c      ****         }
  66:.\main.c      ****         uint16 timer2 = Timer_2_ReadCapture();
  67:.\main.c      ****         if (timer2 >= 1000 && timer2 <= 2000){
  68:.\main.c      ****             timer2 = (timer2-1000)*3;
  69:.\main.c      ****             CyDelay(4);
  70:.\main.c      ****             ServoGoalPosition(0x01, timer2);
  71:.\main.c      ****         }
  72:.\main.c      ****         
  73:.\main.c      **** //        UartWriteLED(1);
  74:.\main.c      **** //        SetServoTorque(0xFE, 0x03FF);       
  75:.\main.c      **** //        LED_Write(1);
  76:.\main.c      **** //        CyDelay(1000);
  77:.\main.c      **** //        ServoGoalPosition(0x02, 1000);
  78:.\main.c      **** //        LED_Write(0);
  79:.\main.c      **** //        UartWriteLED(0);
  80:.\main.c      **** //        CyDelay(1000);
  81:.\main.c      ****             
  82:.\main.c      ****         
  83:.\main.c      ****         
  84:.\main.c      ****         
  85:.\main.c      ****         
  86:.\main.c      ****         
  87:.\main.c      ****     }
  57              		.loc 1 87 0
  58 001e C046     		mov	r8, r8
  59              	.L5:
  60              	.LBB2:
  56:.\main.c      ****         uint16 timer1 = Timer_1_ReadCapture();
  61              		.loc 1 56 0
  62 0020 FFF7FEFF 		bl	Timer_1_ReadCapture
  63 0024 021C     		mov	r2, r0
  64 0026 BB1D     		add	r3, r7, #6
  65 0028 1A80     		strh	r2, [r3]
  57:.\main.c      ****         if (timer1 >= 1000 && timer1 <= 2000){
  66              		.loc 1 57 0
  67 002a BB1D     		add	r3, r7, #6
  68 002c 1A88     		ldrh	r2, [r3]
  69 002e 1E4B     		ldr	r3, .L7
  70 0030 9A42     		cmp	r2, r3
  71 0032 12D9     		bls	.L2
  57:.\main.c      ****         if (timer1 >= 1000 && timer1 <= 2000){
  72              		.loc 1 57 0 is_stmt 0 discriminator 1
  73 0034 BB1D     		add	r3, r7, #6
  74 0036 1A88     		ldrh	r2, [r3]
  75 0038 FA23     		mov	r3, #250
  76 003a DB00     		lsl	r3, r3, #3
  77 003c 9A42     		cmp	r2, r3
  78 003e 0CD8     		bhi	.L2
  58:.\main.c      ****             CyDelay(4);
  79              		.loc 1 58 0 is_stmt 1
  80 0040 0420     		mov	r0, #4
ARM GAS  C:\Users\JOHNSO~1\AppData\Local\Temp\cc95L8fq.s 			page 4


  81 0042 FFF7FEFF 		bl	CyDelay
  59:.\main.c      ****             ServoGoalPosition(0x02, timer1);
  82              		.loc 1 59 0
  83 0046 BB1D     		add	r3, r7, #6
  84 0048 1B88     		ldrh	r3, [r3]
  85 004a 0220     		mov	r0, #2
  86 004c 191C     		mov	r1, r3
  87 004e FFF7FEFF 		bl	ServoGoalPosition
  60:.\main.c      ****             LED_Write(1);
  88              		.loc 1 60 0
  89 0052 0120     		mov	r0, #1
  90 0054 FFF7FEFF 		bl	LED_Write
  91 0058 02E0     		b	.L3
  92              	.L2:
  64:.\main.c      ****             LED_Write(0);
  93              		.loc 1 64 0
  94 005a 0020     		mov	r0, #0
  95 005c FFF7FEFF 		bl	LED_Write
  96              	.L3:
  66:.\main.c      ****         uint16 timer2 = Timer_2_ReadCapture();
  97              		.loc 1 66 0
  98 0060 FFF7FEFF 		bl	Timer_2_ReadCapture
  99 0064 021C     		mov	r2, r0
 100 0066 3B1D     		add	r3, r7, #4
 101 0068 1A80     		strh	r2, [r3]
  67:.\main.c      ****         if (timer2 >= 1000 && timer2 <= 2000){
 102              		.loc 1 67 0
 103 006a 3B1D     		add	r3, r7, #4
 104 006c 1A88     		ldrh	r2, [r3]
 105 006e 0E4B     		ldr	r3, .L7
 106 0070 9A42     		cmp	r2, r3
 107 0072 D4D9     		bls	.L6
  67:.\main.c      ****         if (timer2 >= 1000 && timer2 <= 2000){
 108              		.loc 1 67 0 is_stmt 0 discriminator 1
 109 0074 3B1D     		add	r3, r7, #4
 110 0076 1A88     		ldrh	r2, [r3]
 111 0078 FA23     		mov	r3, #250
 112 007a DB00     		lsl	r3, r3, #3
 113 007c 9A42     		cmp	r2, r3
 114 007e CED8     		bhi	.L6
  68:.\main.c      ****             timer2 = (timer2-1000)*3;
 115              		.loc 1 68 0 is_stmt 1
 116 0080 3B1D     		add	r3, r7, #4
 117 0082 1B88     		ldrh	r3, [r3]
 118 0084 1A1C     		add	r2, r3, #0
 119 0086 5200     		lsl	r2, r2, #1
 120 0088 D318     		add	r3, r2, r3
 121 008a 9AB2     		uxth	r2, r3
 122 008c 3B1D     		add	r3, r7, #4
 123 008e 0749     		ldr	r1, .L7+4
 124 0090 5218     		add	r2, r2, r1
 125 0092 1A80     		strh	r2, [r3]
  69:.\main.c      ****             CyDelay(4);
 126              		.loc 1 69 0
 127 0094 0420     		mov	r0, #4
 128 0096 FFF7FEFF 		bl	CyDelay
  70:.\main.c      ****             ServoGoalPosition(0x01, timer2);
ARM GAS  C:\Users\JOHNSO~1\AppData\Local\Temp\cc95L8fq.s 			page 5


 129              		.loc 1 70 0
 130 009a 3B1D     		add	r3, r7, #4
 131 009c 1B88     		ldrh	r3, [r3]
 132 009e 0120     		mov	r0, #1
 133 00a0 191C     		mov	r1, r3
 134 00a2 FFF7FEFF 		bl	ServoGoalPosition
 135              	.LBE2:
 136              		.loc 1 87 0
 137 00a6 BAE7     		b	.L6
 138              	.L8:
 139              		.align	2
 140              	.L7:
 141 00a8 E7030000 		.word	999
 142 00ac 48F4FFFF 		.word	-3000
 143              		.cfi_endproc
 144              	.LFE33:
 145              		.size	main, .-main
 146              		.section	.text.ServoGoalPosition,"ax",%progbits
 147              		.align	2
 148              		.global	ServoGoalPosition
 149              		.code	16
 150              		.thumb_func
 151              		.type	ServoGoalPosition, %function
 152              	ServoGoalPosition:
 153              	.LFB34:
  88:.\main.c      **** }
  89:.\main.c      ****     
  90:.\main.c      ****     void ServoGoalPosition( uint8 servoID, uint16 position){
 154              		.loc 1 90 0
 155              		.cfi_startproc
 156 0000 80B5     		push	{r7, lr}
 157              	.LCFI3:
 158              		.cfi_def_cfa_offset 8
 159              		.cfi_offset 7, -8
 160              		.cfi_offset 14, -4
 161 0002 86B0     		sub	sp, sp, #24
 162              	.LCFI4:
 163              		.cfi_def_cfa_offset 32
 164 0004 00AF     		add	r7, sp, #0
 165              	.LCFI5:
 166              		.cfi_def_cfa_register 7
 167 0006 0A1C     		mov	r2, r1
 168 0008 FB1D     		add	r3, r7, #7
 169 000a 011C     		add	r1, r0, #0
 170 000c 1970     		strb	r1, [r3]
 171 000e 3B1D     		add	r3, r7, #4
 172 0010 1A80     		strh	r2, [r3]
  91:.\main.c      ****     uint8 array[9];
  92:.\main.c      ****     
  93:.\main.c      ****     array[0] = 0xFF;
 173              		.loc 1 93 0
 174 0012 3B1C     		mov	r3, r7
 175 0014 0C33     		add	r3, r3, #12
 176 0016 FF22     		mov	r2, #255
 177 0018 1A70     		strb	r2, [r3]
  94:.\main.c      ****     array[1] = 0xFF;
 178              		.loc 1 94 0
ARM GAS  C:\Users\JOHNSO~1\AppData\Local\Temp\cc95L8fq.s 			page 6


 179 001a 3B1C     		mov	r3, r7
 180 001c 0C33     		add	r3, r3, #12
 181 001e FF22     		mov	r2, #255
 182 0020 5A70     		strb	r2, [r3, #1]
  95:.\main.c      ****     array[2] = servoID; //this is a broadcast ID.  Change for daisychained servos.
 183              		.loc 1 95 0
 184 0022 3B1C     		mov	r3, r7
 185 0024 0C33     		add	r3, r3, #12
 186 0026 FA1D     		add	r2, r7, #7
 187 0028 1278     		ldrb	r2, [r2]
 188 002a 9A70     		strb	r2, [r3, #2]
  96:.\main.c      ****     array[3] = 0x05;
 189              		.loc 1 96 0
 190 002c 3B1C     		mov	r3, r7
 191 002e 0C33     		add	r3, r3, #12
 192 0030 0522     		mov	r2, #5
 193 0032 DA70     		strb	r2, [r3, #3]
  97:.\main.c      ****     array[4] = 0x03; //write instruction
 194              		.loc 1 97 0
 195 0034 3B1C     		mov	r3, r7
 196 0036 0C33     		add	r3, r3, #12
 197 0038 0322     		mov	r2, #3
 198 003a 1A71     		strb	r2, [r3, #4]
  98:.\main.c      ****     array[5] = 0x1E;
 199              		.loc 1 98 0
 200 003c 3B1C     		mov	r3, r7
 201 003e 0C33     		add	r3, r3, #12
 202 0040 1E22     		mov	r2, #30
 203 0042 5A71     		strb	r2, [r3, #5]
  99:.\main.c      ****     array[6] = position;
 204              		.loc 1 99 0
 205 0044 3B1D     		add	r3, r7, #4
 206 0046 1B88     		ldrh	r3, [r3]
 207 0048 DAB2     		uxtb	r2, r3
 208 004a 3B1C     		mov	r3, r7
 209 004c 0C33     		add	r3, r3, #12
 210 004e 9A71     		strb	r2, [r3, #6]
 100:.\main.c      ****     array[7] = position >> 8;
 211              		.loc 1 100 0
 212 0050 3B1D     		add	r3, r7, #4
 213 0052 1B88     		ldrh	r3, [r3]
 214 0054 1B0A     		lsr	r3, r3, #8
 215 0056 9BB2     		uxth	r3, r3
 216 0058 DAB2     		uxtb	r2, r3
 217 005a 3B1C     		mov	r3, r7
 218 005c 0C33     		add	r3, r3, #12
 219 005e DA71     		strb	r2, [r3, #7]
 101:.\main.c      ****     array[8] = ~(servoID + 0x05 + 0x1E + array[6] + array[7] + 0x03);
 220              		.loc 1 101 0
 221 0060 3B1C     		mov	r3, r7
 222 0062 0C33     		add	r3, r3, #12
 223 0064 9A79     		ldrb	r2, [r3, #6]
 224 0066 FB1D     		add	r3, r7, #7
 225 0068 1B78     		ldrb	r3, [r3]
 226 006a D318     		add	r3, r2, r3
 227 006c DAB2     		uxtb	r2, r3
 228 006e 3B1C     		mov	r3, r7
ARM GAS  C:\Users\JOHNSO~1\AppData\Local\Temp\cc95L8fq.s 			page 7


 229 0070 0C33     		add	r3, r3, #12
 230 0072 DB79     		ldrb	r3, [r3, #7]
 231 0074 D318     		add	r3, r2, r3
 232 0076 DBB2     		uxtb	r3, r3
 233 0078 2633     		add	r3, r3, #38
 234 007a DBB2     		uxtb	r3, r3
 235 007c DB43     		mvn	r3, r3
 236 007e DAB2     		uxtb	r2, r3
 237 0080 3B1C     		mov	r3, r7
 238 0082 0C33     		add	r3, r3, #12
 239 0084 1A72     		strb	r2, [r3, #8]
 102:.\main.c      ****     
 103:.\main.c      ****     UART_1_PutArray(array, 0x09);
 240              		.loc 1 103 0
 241 0086 3B1C     		mov	r3, r7
 242 0088 0C33     		add	r3, r3, #12
 243 008a 181C     		mov	r0, r3
 244 008c 0921     		mov	r1, #9
 245 008e FFF7FEFF 		bl	UART_1_PutArray
 104:.\main.c      ****     
 105:.\main.c      **** }
 246              		.loc 1 105 0
 247 0092 BD46     		mov	sp, r7
 248 0094 06B0     		add	sp, sp, #24
 249              		@ sp needed for prologue
 250 0096 80BD     		pop	{r7, pc}
 251              		.cfi_endproc
 252              	.LFE34:
 253              		.size	ServoGoalPosition, .-ServoGoalPosition
 254              		.section	.text.SetServoTorque,"ax",%progbits
 255              		.align	2
 256              		.global	SetServoTorque
 257              		.code	16
 258              		.thumb_func
 259              		.type	SetServoTorque, %function
 260              	SetServoTorque:
 261              	.LFB35:
 106:.\main.c      ****     
 107:.\main.c      **** void SetServoTorque( uint8 servoID, uint16 torque){
 262              		.loc 1 107 0
 263              		.cfi_startproc
 264 0000 80B5     		push	{r7, lr}
 265              	.LCFI6:
 266              		.cfi_def_cfa_offset 8
 267              		.cfi_offset 7, -8
 268              		.cfi_offset 14, -4
 269 0002 86B0     		sub	sp, sp, #24
 270              	.LCFI7:
 271              		.cfi_def_cfa_offset 32
 272 0004 00AF     		add	r7, sp, #0
 273              	.LCFI8:
 274              		.cfi_def_cfa_register 7
 275 0006 0A1C     		mov	r2, r1
 276 0008 FB1D     		add	r3, r7, #7
 277 000a 011C     		add	r1, r0, #0
 278 000c 1970     		strb	r1, [r3]
 279 000e 3B1D     		add	r3, r7, #4
ARM GAS  C:\Users\JOHNSO~1\AppData\Local\Temp\cc95L8fq.s 			page 8


 280 0010 1A80     		strh	r2, [r3]
 108:.\main.c      ****     uint8 array[9];
 109:.\main.c      ****     
 110:.\main.c      ****     array[0] = 0xFF;
 281              		.loc 1 110 0
 282 0012 3B1C     		mov	r3, r7
 283 0014 0C33     		add	r3, r3, #12
 284 0016 FF22     		mov	r2, #255
 285 0018 1A70     		strb	r2, [r3]
 111:.\main.c      ****     array[1] = 0xFF;
 286              		.loc 1 111 0
 287 001a 3B1C     		mov	r3, r7
 288 001c 0C33     		add	r3, r3, #12
 289 001e FF22     		mov	r2, #255
 290 0020 5A70     		strb	r2, [r3, #1]
 112:.\main.c      ****     array[2] = servoID; 
 291              		.loc 1 112 0
 292 0022 3B1C     		mov	r3, r7
 293 0024 0C33     		add	r3, r3, #12
 294 0026 FA1D     		add	r2, r7, #7
 295 0028 1278     		ldrb	r2, [r2]
 296 002a 9A70     		strb	r2, [r3, #2]
 113:.\main.c      ****     array[3] = 0x05;
 297              		.loc 1 113 0
 298 002c 3B1C     		mov	r3, r7
 299 002e 0C33     		add	r3, r3, #12
 300 0030 0522     		mov	r2, #5
 301 0032 DA70     		strb	r2, [r3, #3]
 114:.\main.c      ****     array[4] = 0x03; //write instruction
 302              		.loc 1 114 0
 303 0034 3B1C     		mov	r3, r7
 304 0036 0C33     		add	r3, r3, #12
 305 0038 0322     		mov	r2, #3
 306 003a 1A71     		strb	r2, [r3, #4]
 115:.\main.c      ****     array[5] = 0x0E;
 307              		.loc 1 115 0
 308 003c 3B1C     		mov	r3, r7
 309 003e 0C33     		add	r3, r3, #12
 310 0040 0E22     		mov	r2, #14
 311 0042 5A71     		strb	r2, [r3, #5]
 116:.\main.c      ****     array[6] = torque;
 312              		.loc 1 116 0
 313 0044 3B1D     		add	r3, r7, #4
 314 0046 1B88     		ldrh	r3, [r3]
 315 0048 DAB2     		uxtb	r2, r3
 316 004a 3B1C     		mov	r3, r7
 317 004c 0C33     		add	r3, r3, #12
 318 004e 9A71     		strb	r2, [r3, #6]
 117:.\main.c      ****     array[7] = torque >> 8;
 319              		.loc 1 117 0
 320 0050 3B1D     		add	r3, r7, #4
 321 0052 1B88     		ldrh	r3, [r3]
 322 0054 1B0A     		lsr	r3, r3, #8
 323 0056 9BB2     		uxth	r3, r3
 324 0058 DAB2     		uxtb	r2, r3
 325 005a 3B1C     		mov	r3, r7
 326 005c 0C33     		add	r3, r3, #12
ARM GAS  C:\Users\JOHNSO~1\AppData\Local\Temp\cc95L8fq.s 			page 9


 327 005e DA71     		strb	r2, [r3, #7]
 118:.\main.c      ****     array[8] = ~(servoID + 0x05 + 0x0E + array[6] + array[7] + 0x03);
 328              		.loc 1 118 0
 329 0060 3B1C     		mov	r3, r7
 330 0062 0C33     		add	r3, r3, #12
 331 0064 9A79     		ldrb	r2, [r3, #6]
 332 0066 FB1D     		add	r3, r7, #7
 333 0068 1B78     		ldrb	r3, [r3]
 334 006a D318     		add	r3, r2, r3
 335 006c DAB2     		uxtb	r2, r3
 336 006e 3B1C     		mov	r3, r7
 337 0070 0C33     		add	r3, r3, #12
 338 0072 DB79     		ldrb	r3, [r3, #7]
 339 0074 D318     		add	r3, r2, r3
 340 0076 DBB2     		uxtb	r3, r3
 341 0078 1633     		add	r3, r3, #22
 342 007a DBB2     		uxtb	r3, r3
 343 007c DB43     		mvn	r3, r3
 344 007e DAB2     		uxtb	r2, r3
 345 0080 3B1C     		mov	r3, r7
 346 0082 0C33     		add	r3, r3, #12
 347 0084 1A72     		strb	r2, [r3, #8]
 119:.\main.c      ****     
 120:.\main.c      ****     UART_1_PutArray(array, 0x09);
 348              		.loc 1 120 0
 349 0086 3B1C     		mov	r3, r7
 350 0088 0C33     		add	r3, r3, #12
 351 008a 181C     		mov	r0, r3
 352 008c 0921     		mov	r1, #9
 353 008e FFF7FEFF 		bl	UART_1_PutArray
 121:.\main.c      ****     
 122:.\main.c      **** }    
 354              		.loc 1 122 0
 355 0092 BD46     		mov	sp, r7
 356 0094 06B0     		add	sp, sp, #24
 357              		@ sp needed for prologue
 358 0096 80BD     		pop	{r7, pc}
 359              		.cfi_endproc
 360              	.LFE35:
 361              		.size	SetServoTorque, .-SetServoTorque
 362              		.section	.text.ServoSpeed,"ax",%progbits
 363              		.align	2
 364              		.global	ServoSpeed
 365              		.code	16
 366              		.thumb_func
 367              		.type	ServoSpeed, %function
 368              	ServoSpeed:
 369              	.LFB36:
 123:.\main.c      **** 
 124:.\main.c      **** void ServoSpeed( uint8 servoID, uint16 speed){
 370              		.loc 1 124 0
 371              		.cfi_startproc
 372 0000 80B5     		push	{r7, lr}
 373              	.LCFI9:
 374              		.cfi_def_cfa_offset 8
 375              		.cfi_offset 7, -8
 376              		.cfi_offset 14, -4
ARM GAS  C:\Users\JOHNSO~1\AppData\Local\Temp\cc95L8fq.s 			page 10


 377 0002 86B0     		sub	sp, sp, #24
 378              	.LCFI10:
 379              		.cfi_def_cfa_offset 32
 380 0004 00AF     		add	r7, sp, #0
 381              	.LCFI11:
 382              		.cfi_def_cfa_register 7
 383 0006 0A1C     		mov	r2, r1
 384 0008 FB1D     		add	r3, r7, #7
 385 000a 011C     		add	r1, r0, #0
 386 000c 1970     		strb	r1, [r3]
 387 000e 3B1D     		add	r3, r7, #4
 388 0010 1A80     		strh	r2, [r3]
 125:.\main.c      ****     uint8 array[9];
 126:.\main.c      ****     
 127:.\main.c      ****     array[0] = 0xFF;
 389              		.loc 1 127 0
 390 0012 3B1C     		mov	r3, r7
 391 0014 0C33     		add	r3, r3, #12
 392 0016 FF22     		mov	r2, #255
 393 0018 1A70     		strb	r2, [r3]
 128:.\main.c      ****     array[1] = 0xFF;
 394              		.loc 1 128 0
 395 001a 3B1C     		mov	r3, r7
 396 001c 0C33     		add	r3, r3, #12
 397 001e FF22     		mov	r2, #255
 398 0020 5A70     		strb	r2, [r3, #1]
 129:.\main.c      ****     array[2] = servoID; //this is a broadcast ID.  Change for daisychained servos.
 399              		.loc 1 129 0
 400 0022 3B1C     		mov	r3, r7
 401 0024 0C33     		add	r3, r3, #12
 402 0026 FA1D     		add	r2, r7, #7
 403 0028 1278     		ldrb	r2, [r2]
 404 002a 9A70     		strb	r2, [r3, #2]
 130:.\main.c      ****     array[3] = 0x05;
 405              		.loc 1 130 0
 406 002c 3B1C     		mov	r3, r7
 407 002e 0C33     		add	r3, r3, #12
 408 0030 0522     		mov	r2, #5
 409 0032 DA70     		strb	r2, [r3, #3]
 131:.\main.c      ****     array[4] = 0x03; //write instruction
 410              		.loc 1 131 0
 411 0034 3B1C     		mov	r3, r7
 412 0036 0C33     		add	r3, r3, #12
 413 0038 0322     		mov	r2, #3
 414 003a 1A71     		strb	r2, [r3, #4]
 132:.\main.c      ****     array[5] = 0x20;
 415              		.loc 1 132 0
 416 003c 3B1C     		mov	r3, r7
 417 003e 0C33     		add	r3, r3, #12
 418 0040 2022     		mov	r2, #32
 419 0042 5A71     		strb	r2, [r3, #5]
 133:.\main.c      ****     array[6] = speed;
 420              		.loc 1 133 0
 421 0044 3B1D     		add	r3, r7, #4
 422 0046 1B88     		ldrh	r3, [r3]
 423 0048 DAB2     		uxtb	r2, r3
 424 004a 3B1C     		mov	r3, r7
ARM GAS  C:\Users\JOHNSO~1\AppData\Local\Temp\cc95L8fq.s 			page 11


 425 004c 0C33     		add	r3, r3, #12
 426 004e 9A71     		strb	r2, [r3, #6]
 134:.\main.c      ****     array[7] = speed >> 8;
 427              		.loc 1 134 0
 428 0050 3B1D     		add	r3, r7, #4
 429 0052 1B88     		ldrh	r3, [r3]
 430 0054 1B0A     		lsr	r3, r3, #8
 431 0056 9BB2     		uxth	r3, r3
 432 0058 DAB2     		uxtb	r2, r3
 433 005a 3B1C     		mov	r3, r7
 434 005c 0C33     		add	r3, r3, #12
 435 005e DA71     		strb	r2, [r3, #7]
 135:.\main.c      ****     array[8] = ~(servoID + 0x05 + 0x20 + array[6] + array[7] + 0x03);
 436              		.loc 1 135 0
 437 0060 3B1C     		mov	r3, r7
 438 0062 0C33     		add	r3, r3, #12
 439 0064 9A79     		ldrb	r2, [r3, #6]
 440 0066 FB1D     		add	r3, r7, #7
 441 0068 1B78     		ldrb	r3, [r3]
 442 006a D318     		add	r3, r2, r3
 443 006c DAB2     		uxtb	r2, r3
 444 006e 3B1C     		mov	r3, r7
 445 0070 0C33     		add	r3, r3, #12
 446 0072 DB79     		ldrb	r3, [r3, #7]
 447 0074 D318     		add	r3, r2, r3
 448 0076 DBB2     		uxtb	r3, r3
 449 0078 2833     		add	r3, r3, #40
 450 007a DBB2     		uxtb	r3, r3
 451 007c DB43     		mvn	r3, r3
 452 007e DAB2     		uxtb	r2, r3
 453 0080 3B1C     		mov	r3, r7
 454 0082 0C33     		add	r3, r3, #12
 455 0084 1A72     		strb	r2, [r3, #8]
 136:.\main.c      ****     
 137:.\main.c      ****     UART_1_PutArray(array, 0x09);
 456              		.loc 1 137 0
 457 0086 3B1C     		mov	r3, r7
 458 0088 0C33     		add	r3, r3, #12
 459 008a 181C     		mov	r0, r3
 460 008c 0921     		mov	r1, #9
 461 008e FFF7FEFF 		bl	UART_1_PutArray
 138:.\main.c      ****     
 139:.\main.c      **** }
 462              		.loc 1 139 0
 463 0092 BD46     		mov	sp, r7
 464 0094 06B0     		add	sp, sp, #24
 465              		@ sp needed for prologue
 466 0096 80BD     		pop	{r7, pc}
 467              		.cfi_endproc
 468              	.LFE36:
 469              		.size	ServoSpeed, .-ServoSpeed
 470              		.section	.text.ReadRequest,"ax",%progbits
 471              		.align	2
 472              		.global	ReadRequest
 473              		.code	16
 474              		.thumb_func
 475              		.type	ReadRequest, %function
ARM GAS  C:\Users\JOHNSO~1\AppData\Local\Temp\cc95L8fq.s 			page 12


 476              	ReadRequest:
 477              	.LFB37:
 140:.\main.c      **** 
 141:.\main.c      **** void ReadRequest(uint8 id,uint16 address, uint8 length){ // note that this uses a broadcast ID - it
 478              		.loc 1 141 0
 479              		.cfi_startproc
 480 0000 80B5     		push	{r7, lr}
 481              	.LCFI12:
 482              		.cfi_def_cfa_offset 8
 483              		.cfi_offset 7, -8
 484              		.cfi_offset 14, -4
 485 0002 84B0     		sub	sp, sp, #16
 486              	.LCFI13:
 487              		.cfi_def_cfa_offset 24
 488 0004 00AF     		add	r7, sp, #0
 489              	.LCFI14:
 490              		.cfi_def_cfa_register 7
 491 0006 FB1D     		add	r3, r7, #7
 492 0008 1870     		strb	r0, [r3]
 493 000a 3B1D     		add	r3, r7, #4
 494 000c 1980     		strh	r1, [r3]
 495 000e BB1D     		add	r3, r7, #6
 496 0010 1A70     		strb	r2, [r3]
 142:.\main.c      ****     uint8 array[8];
 143:.\main.c      ****     
 144:.\main.c      ****     array[0] = 0xFE;
 497              		.loc 1 144 0
 498 0012 3B1C     		mov	r3, r7
 499 0014 0833     		add	r3, r3, #8
 500 0016 FE22     		mov	r2, #254
 501 0018 1A70     		strb	r2, [r3]
 145:.\main.c      ****     array[1] = 0xFE;
 502              		.loc 1 145 0
 503 001a 3B1C     		mov	r3, r7
 504 001c 0833     		add	r3, r3, #8
 505 001e FE22     		mov	r2, #254
 506 0020 5A70     		strb	r2, [r3, #1]
 146:.\main.c      ****     array[2] = id; //this is a broadcast ID.  Change for daisychained servos.
 507              		.loc 1 146 0
 508 0022 3B1C     		mov	r3, r7
 509 0024 0833     		add	r3, r3, #8
 510 0026 FA1D     		add	r2, r7, #7
 511 0028 1278     		ldrb	r2, [r2]
 512 002a 9A70     		strb	r2, [r3, #2]
 147:.\main.c      ****     array[3] = 0x04; //length = number of parameters + 2
 513              		.loc 1 147 0
 514 002c 3B1C     		mov	r3, r7
 515 002e 0833     		add	r3, r3, #8
 516 0030 0422     		mov	r2, #4
 517 0032 DA70     		strb	r2, [r3, #3]
 148:.\main.c      ****     array[4] = 0x02; //write instruction
 518              		.loc 1 148 0
 519 0034 3B1C     		mov	r3, r7
 520 0036 0833     		add	r3, r3, #8
 521 0038 0222     		mov	r2, #2
 522 003a 1A71     		strb	r2, [r3, #4]
 149:.\main.c      ****     array[5] = address;
ARM GAS  C:\Users\JOHNSO~1\AppData\Local\Temp\cc95L8fq.s 			page 13


 523              		.loc 1 149 0
 524 003c 3B1D     		add	r3, r7, #4
 525 003e 1B88     		ldrh	r3, [r3]
 526 0040 DAB2     		uxtb	r2, r3
 527 0042 3B1C     		mov	r3, r7
 528 0044 0833     		add	r3, r3, #8
 529 0046 5A71     		strb	r2, [r3, #5]
 150:.\main.c      ****     array[6] = length;
 530              		.loc 1 150 0
 531 0048 3B1C     		mov	r3, r7
 532 004a 0833     		add	r3, r3, #8
 533 004c BA1D     		add	r2, r7, #6
 534 004e 1278     		ldrb	r2, [r2]
 535 0050 9A71     		strb	r2, [r3, #6]
 151:.\main.c      ****     array[7]= ~(id + 0x04 + address + length +0x02);
 536              		.loc 1 151 0
 537 0052 3B1D     		add	r3, r7, #4
 538 0054 1B88     		ldrh	r3, [r3]
 539 0056 DAB2     		uxtb	r2, r3
 540 0058 FB1D     		add	r3, r7, #7
 541 005a 1B78     		ldrb	r3, [r3]
 542 005c D318     		add	r3, r2, r3
 543 005e DAB2     		uxtb	r2, r3
 544 0060 BB1D     		add	r3, r7, #6
 545 0062 1B78     		ldrb	r3, [r3]
 546 0064 D318     		add	r3, r2, r3
 547 0066 DBB2     		uxtb	r3, r3
 548 0068 0633     		add	r3, r3, #6
 549 006a DBB2     		uxtb	r3, r3
 550 006c DB43     		mvn	r3, r3
 551 006e DAB2     		uxtb	r2, r3
 552 0070 3B1C     		mov	r3, r7
 553 0072 0833     		add	r3, r3, #8
 554 0074 DA71     		strb	r2, [r3, #7]
 152:.\main.c      ****  
 153:.\main.c      ****     
 154:.\main.c      ****     UART_1_PutArray(array, 0x08);
 555              		.loc 1 154 0
 556 0076 3B1C     		mov	r3, r7
 557 0078 0833     		add	r3, r3, #8
 558 007a 181C     		mov	r0, r3
 559 007c 0821     		mov	r1, #8
 560 007e FFF7FEFF 		bl	UART_1_PutArray
 155:.\main.c      ****     
 156:.\main.c      **** }
 561              		.loc 1 156 0
 562 0082 BD46     		mov	sp, r7
 563 0084 04B0     		add	sp, sp, #16
 564              		@ sp needed for prologue
 565 0086 80BD     		pop	{r7, pc}
 566              		.cfi_endproc
 567              	.LFE37:
 568              		.size	ReadRequest, .-ReadRequest
 569              		.section	.text.UartWriteLED,"ax",%progbits
 570              		.align	2
 571              		.global	UartWriteLED
 572              		.code	16
ARM GAS  C:\Users\JOHNSO~1\AppData\Local\Temp\cc95L8fq.s 			page 14


 573              		.thumb_func
 574              		.type	UartWriteLED, %function
 575              	UartWriteLED:
 576              	.LFB38:
 157:.\main.c      **** 
 158:.\main.c      **** void UartWriteLED( uint8 ledvalue){
 577              		.loc 1 158 0
 578              		.cfi_startproc
 579 0000 80B5     		push	{r7, lr}
 580              	.LCFI15:
 581              		.cfi_def_cfa_offset 8
 582              		.cfi_offset 7, -8
 583              		.cfi_offset 14, -4
 584 0002 84B0     		sub	sp, sp, #16
 585              	.LCFI16:
 586              		.cfi_def_cfa_offset 24
 587 0004 00AF     		add	r7, sp, #0
 588              	.LCFI17:
 589              		.cfi_def_cfa_register 7
 590 0006 021C     		mov	r2, r0
 591 0008 FB1D     		add	r3, r7, #7
 592 000a 1A70     		strb	r2, [r3]
 159:.\main.c      ****     uint8 array[8];
 160:.\main.c      ****     
 161:.\main.c      ****     array[0] = 0xFE;
 593              		.loc 1 161 0
 594 000c 3B1C     		mov	r3, r7
 595 000e 0833     		add	r3, r3, #8
 596 0010 FE22     		mov	r2, #254
 597 0012 1A70     		strb	r2, [r3]
 162:.\main.c      ****     array[1] = 0xFE;
 598              		.loc 1 162 0
 599 0014 3B1C     		mov	r3, r7
 600 0016 0833     		add	r3, r3, #8
 601 0018 FE22     		mov	r2, #254
 602 001a 5A70     		strb	r2, [r3, #1]
 163:.\main.c      ****     array[2] = 0x0FE; //this is a broadcast ID.  Change for daisychained servos.
 603              		.loc 1 163 0
 604 001c 3B1C     		mov	r3, r7
 605 001e 0833     		add	r3, r3, #8
 606 0020 FE22     		mov	r2, #254
 607 0022 9A70     		strb	r2, [r3, #2]
 164:.\main.c      ****     array[3] = 0x04;
 608              		.loc 1 164 0
 609 0024 3B1C     		mov	r3, r7
 610 0026 0833     		add	r3, r3, #8
 611 0028 0422     		mov	r2, #4
 612 002a DA70     		strb	r2, [r3, #3]
 165:.\main.c      ****     array[4] = 0x03; //write instruction
 613              		.loc 1 165 0
 614 002c 3B1C     		mov	r3, r7
 615 002e 0833     		add	r3, r3, #8
 616 0030 0322     		mov	r2, #3
 617 0032 1A71     		strb	r2, [r3, #4]
 166:.\main.c      ****     array[5] = 0x19;
 618              		.loc 1 166 0
 619 0034 3B1C     		mov	r3, r7
ARM GAS  C:\Users\JOHNSO~1\AppData\Local\Temp\cc95L8fq.s 			page 15


 620 0036 0833     		add	r3, r3, #8
 621 0038 1922     		mov	r2, #25
 622 003a 5A71     		strb	r2, [r3, #5]
 167:.\main.c      ****     array[6] = ledvalue;
 623              		.loc 1 167 0
 624 003c 3B1C     		mov	r3, r7
 625 003e 0833     		add	r3, r3, #8
 626 0040 FA1D     		add	r2, r7, #7
 627 0042 1278     		ldrb	r2, [r2]
 628 0044 9A71     		strb	r2, [r3, #6]
 168:.\main.c      ****     array[7] = ~(0x0FE + 0x04 + 0x19 + ledvalue + 0x03);
 629              		.loc 1 168 0
 630 0046 FB1D     		add	r3, r7, #7
 631 0048 1B78     		ldrb	r3, [r3]
 632 004a 1E33     		add	r3, r3, #30
 633 004c DBB2     		uxtb	r3, r3
 634 004e DB43     		mvn	r3, r3
 635 0050 DAB2     		uxtb	r2, r3
 636 0052 3B1C     		mov	r3, r7
 637 0054 0833     		add	r3, r3, #8
 638 0056 DA71     		strb	r2, [r3, #7]
 169:.\main.c      ****     
 170:.\main.c      ****     UART_1_PutArray(array, 0x08);
 639              		.loc 1 170 0
 640 0058 3B1C     		mov	r3, r7
 641 005a 0833     		add	r3, r3, #8
 642 005c 181C     		mov	r0, r3
 643 005e 0821     		mov	r1, #8
 644 0060 FFF7FEFF 		bl	UART_1_PutArray
 171:.\main.c      ****     
 172:.\main.c      **** }
 645              		.loc 1 172 0
 646 0064 BD46     		mov	sp, r7
 647 0066 04B0     		add	sp, sp, #16
 648              		@ sp needed for prologue
 649 0068 80BD     		pop	{r7, pc}
 650              		.cfi_endproc
 651              	.LFE38:
 652              		.size	UartWriteLED, .-UartWriteLED
 653 006a C046     		.text
 654              	.Letext0:
 655              		.file 2 "./Generated_Source/PSoC4/cytypes.h"