ARM GAS  C:\Users\Samuel\AppData\Local\Temp\ccQIA0Ey.s 			page 1


   1              		.cpu cortex-m0
   2              		.fpu softvfp
   3              		.eabi_attribute 20, 1
   4              		.eabi_attribute 21, 1
   5              		.eabi_attribute 23, 3
   6              		.eabi_attribute 24, 1
   7              		.eabi_attribute 25, 1
   8              		.eabi_attribute 26, 1
   9              		.eabi_attribute 30, 6
  10              		.eabi_attribute 34, 0
  11              		.eabi_attribute 18, 4
  12              		.code	16
  13              		.file	"main.c"
  14              		.text
  15              	.Ltext0:
  16              		.cfi_sections	.debug_frame
  17              		.section	.text.main,"ax",%progbits
  18              		.align	2
  19              		.global	main
  20              		.code	16
  21              		.thumb_func
  22              		.type	main, %function
  23              	main:
  24              	.LFB33:
  25              		.file 1 ".\\main.c"
   1:.\main.c      **** /* ========================================
   2:.\main.c      ****  * 2015 BYU Mars Rover
   3:.\main.c      ****  * Dynamixel Wrist PWM to UART Driver
   4:.\main.c      ****  * Written by Jake Johnson
   5:.\main.c      ****  * 
   6:.\main.c      ****  * Copyright BYU Mars Rover Team, 2015
   7:.\main.c      ****  * All Rights Reserved
   8:.\main.c      ****  * UNPUBLISHED, LICENSED SOFTWARE.
   9:.\main.c      ****  *
  10:.\main.c      ****  * Note: Channel_1, Channel 2 are 5V PWM inputs; tx is 5V servo output
  11:.\main.c      ****  * Note: This only writes basic movement instructions to the Dynamixel
  12:.\main.c      ****  *       It does not read the status messages sent by the servos.  
  13:.\main.c      ****  *       To do that, a tri-state buffer will need to be implemented.
  14:.\main.c      ****  * 
  15:.\main.c      ****  *
  16:.\main.c      ****  * 
  17:.\main.c      ****  * ========================================
  18:.\main.c      **** */
  19:.\main.c      **** #include <project.h>
  20:.\main.c      **** 
  21:.\main.c      **** // Functon declarations for basic Dynamixel instructions
  22:.\main.c      **** 
  23:.\main.c      **** void ServoGoalPosition( uint8 servoID, uint16 position);
  24:.\main.c      **** void ServoSpeed( uint8 servoID, uint16 speed);
  25:.\main.c      **** void ReadRequest(uint8 id, uint16 address, uint8 length);
  26:.\main.c      **** void UartWriteLED( uint8 ledvalue);
  27:.\main.c      **** void SetServoTorque( uint8 servoID, uint16 torque);
  28:.\main.c      **** 
  29:.\main.c      **** int main()
  30:.\main.c      **** {
  26              		.loc 1 30 0
  27              		.cfi_startproc
ARM GAS  C:\Users\Samuel\AppData\Local\Temp\ccQIA0Ey.s 			page 2


  28 0000 80B5     		push	{r7, lr}
  29              		.cfi_def_cfa_offset 8
  30              		.cfi_offset 7, -8
  31              		.cfi_offset 14, -4
  32 0002 82B0     		sub	sp, sp, #8
  33              		.cfi_def_cfa_offset 16
  34 0004 00AF     		add	r7, sp, #0
  35              		.cfi_def_cfa_register 7
  31:.\main.c      **** 
  32:.\main.c      ****     // Initializations of the FPGA hardware logic blocks
  33:.\main.c      ****     UART_1_Start();
  36              		.loc 1 33 0
  37 0006 FFF7FEFF 		bl	UART_1_Start
  34:.\main.c      ****     UART_2_Start();
  38              		.loc 1 34 0
  39 000a FFF7FEFF 		bl	UART_2_Start
  35:.\main.c      ****     Timer_1_Start();
  40              		.loc 1 35 0
  41 000e FFF7FEFF 		bl	Timer_1_Start
  36:.\main.c      ****     Timer_2_Start();
  42              		.loc 1 36 0
  43 0012 FFF7FEFF 		bl	Timer_2_Start
  37:.\main.c      ****     
  38:.\main.c      ****     // Initialize the servo to speed of 100
  39:.\main.c      ****     
  40:.\main.c      ****     ServoSpeed(0xFE, 100);
  44              		.loc 1 40 0
  45 0016 FE20     		mov	r0, #254
  46 0018 6421     		mov	r1, #100
  47 001a FFF7FEFF 		bl	ServoSpeed
  41:.\main.c      ****     
  42:.\main.c      ****     
  43:.\main.c      ****      CyGlobalIntEnable; // Uncomment this line to enable global interrupts. */
  48              		.loc 1 43 0
  49              	@ 43 ".\main.c" 1
  50 001e 62B6     		CPSIE   i
  51              	@ 0 "" 2
  52              		.code	16
  53              	.L5:
  54              	.LBB2:
  44:.\main.c      ****     for(;;)
  45:.\main.c      ****     {
  46:.\main.c      ****         
  47:.\main.c      ****         uint16 timer1 = Timer_1_ReadCapture(); // Read in the latest captured pulse width for chann
  55              		.loc 1 47 0
  56 0020 FFF7FEFF 		bl	Timer_1_ReadCapture
  57 0024 021C     		mov	r2, r0
  58 0026 BB1D     		add	r3, r7, #6
  59 0028 1A80     		strh	r2, [r3]
  48:.\main.c      ****         if (timer1 >= 1000 && timer1 <= 2000){ // Low pass filter it
  60              		.loc 1 48 0
  61 002a BB1D     		add	r3, r7, #6
  62 002c 1A88     		ldrh	r2, [r3]
  63 002e 1F4B     		ldr	r3, .L6
  64 0030 9A42     		cmp	r2, r3
  65 0032 12D9     		bls	.L2
  66              		.loc 1 48 0 is_stmt 0 discriminator 1
ARM GAS  C:\Users\Samuel\AppData\Local\Temp\ccQIA0Ey.s 			page 3


  67 0034 BB1D     		add	r3, r7, #6
  68 0036 1A88     		ldrh	r2, [r3]
  69 0038 FA23     		mov	r3, #250
  70 003a DB00     		lsl	r3, r3, #3
  71 003c 9A42     		cmp	r2, r3
  72 003e 0CD8     		bhi	.L2
  49:.\main.c      ****             CyDelay(4); // This delay is to wait for the hardware block to send out the data, and t
  73              		.loc 1 49 0 is_stmt 1
  74 0040 0420     		mov	r0, #4
  75 0042 FFF7FEFF 		bl	CyDelay
  50:.\main.c      ****             ServoGoalPosition(0x02, timer1);
  76              		.loc 1 50 0
  77 0046 BB1D     		add	r3, r7, #6
  78 0048 1B88     		ldrh	r3, [r3]
  79 004a 0220     		mov	r0, #2
  80 004c 191C     		mov	r1, r3
  81 004e FFF7FEFF 		bl	ServoGoalPosition
  51:.\main.c      ****             LED_Write(1);
  82              		.loc 1 51 0
  83 0052 0120     		mov	r0, #1
  84 0054 FFF7FEFF 		bl	LED_Write
  85 0058 02E0     		b	.L3
  86              	.L2:
  52:.\main.c      ****             
  53:.\main.c      ****         }
  54:.\main.c      ****         else{
  55:.\main.c      ****             LED_Write(0);
  87              		.loc 1 55 0
  88 005a 0020     		mov	r0, #0
  89 005c FFF7FEFF 		bl	LED_Write
  90              	.L3:
  56:.\main.c      ****         }
  57:.\main.c      ****         uint16 timer2 = Timer_2_ReadCapture();
  91              		.loc 1 57 0
  92 0060 FFF7FEFF 		bl	Timer_2_ReadCapture
  93 0064 021C     		mov	r2, r0
  94 0066 3B1D     		add	r3, r7, #4
  95 0068 1A80     		strh	r2, [r3]
  58:.\main.c      ****         if (timer2 >= 1000 && timer2 <= 2000){
  96              		.loc 1 58 0
  97 006a 3B1D     		add	r3, r7, #4
  98 006c 1A88     		ldrh	r2, [r3]
  99 006e 0F4B     		ldr	r3, .L6
 100 0070 9A42     		cmp	r2, r3
 101 0072 19D9     		bls	.L4
 102              		.loc 1 58 0 is_stmt 0 discriminator 1
 103 0074 3B1D     		add	r3, r7, #4
 104 0076 1A88     		ldrh	r2, [r3]
 105 0078 FA23     		mov	r3, #250
 106 007a DB00     		lsl	r3, r3, #3
 107 007c 9A42     		cmp	r2, r3
 108 007e 13D8     		bhi	.L4
  59:.\main.c      ****             timer2 = (timer2-1000)*3;
 109              		.loc 1 59 0 is_stmt 1
 110 0080 3B1D     		add	r3, r7, #4
 111 0082 1B88     		ldrh	r3, [r3]
 112 0084 0A4A     		ldr	r2, .L6+4
ARM GAS  C:\Users\Samuel\AppData\Local\Temp\ccQIA0Ey.s 			page 4


 113 0086 9B18     		add	r3, r3, r2
 114 0088 9BB2     		uxth	r3, r3
 115 008a 391D     		add	r1, r7, #4
 116 008c 1A1C     		add	r2, r3, #0
 117 008e 9218     		add	r2, r2, r2
 118 0090 D318     		add	r3, r2, r3
 119 0092 0B80     		strh	r3, [r1]
  60:.\main.c      ****             CyDelay(4);
 120              		.loc 1 60 0
 121 0094 0420     		mov	r0, #4
 122 0096 FFF7FEFF 		bl	CyDelay
  61:.\main.c      ****             ServoGoalPosition(0x01, timer2);
 123              		.loc 1 61 0
 124 009a 3B1D     		add	r3, r7, #4
 125 009c 1B88     		ldrh	r3, [r3]
 126 009e 0120     		mov	r0, #1
 127 00a0 191C     		mov	r1, r3
 128 00a2 FFF7FEFF 		bl	ServoGoalPosition
 129              	.LBE2:
  62:.\main.c      ****         }
  63:.\main.c      **** 
  64:.\main.c      ****         
  65:.\main.c      **** // This is a piece of code that will reset the torque on the servo to it's maximum value
  66:.\main.c      ****         
  67:.\main.c      **** //        UartWriteLED(1);
  68:.\main.c      **** //        SetServoTorque(0xFE, 0x03FF);       
  69:.\main.c      **** //        LED_Write(1);
  70:.\main.c      **** //        CyDelay(1000);
  71:.\main.c      **** //        ServoGoalPosition(0x02, 1000);
  72:.\main.c      **** //        LED_Write(0);
  73:.\main.c      **** //        UartWriteLED(0);
  74:.\main.c      **** //        CyDelay(1000);
  75:.\main.c      ****             
  76:.\main.c      ****         
  77:.\main.c      ****         
  78:.\main.c      ****         
  79:.\main.c      ****         
  80:.\main.c      ****         
  81:.\main.c      ****     }
 130              		.loc 1 81 0
 131 00a6 BBE7     		b	.L5
 132              	.L4:
 133 00a8 BAE7     		b	.L5
 134              	.L7:
 135 00aa C046     		.align	2
 136              	.L6:
 137 00ac E7030000 		.word	999
 138 00b0 18FCFFFF 		.word	-1000
 139              		.cfi_endproc
 140              	.LFE33:
 141              		.size	main, .-main
 142              		.section	.text.ServoGoalPosition,"ax",%progbits
 143              		.align	2
 144              		.global	ServoGoalPosition
 145              		.code	16
 146              		.thumb_func
 147              		.type	ServoGoalPosition, %function
ARM GAS  C:\Users\Samuel\AppData\Local\Temp\ccQIA0Ey.s 			page 5


 148              	ServoGoalPosition:
 149              	.LFB34:
  82:.\main.c      **** }
  83:.\main.c      ****     
  84:.\main.c      ****     void ServoGoalPosition( uint8 servoID, uint16 position){
 150              		.loc 1 84 0
 151              		.cfi_startproc
 152 0000 80B5     		push	{r7, lr}
 153              		.cfi_def_cfa_offset 8
 154              		.cfi_offset 7, -8
 155              		.cfi_offset 14, -4
 156 0002 86B0     		sub	sp, sp, #24
 157              		.cfi_def_cfa_offset 32
 158 0004 00AF     		add	r7, sp, #0
 159              		.cfi_def_cfa_register 7
 160 0006 0A1C     		mov	r2, r1
 161 0008 FB1D     		add	r3, r7, #7
 162 000a 011C     		add	r1, r0, #0
 163 000c 1970     		strb	r1, [r3]
 164 000e 3B1D     		add	r3, r7, #4
 165 0010 1A80     		strh	r2, [r3]
  85:.\main.c      ****     uint8 array[9];
  86:.\main.c      ****     
  87:.\main.c      ****     array[0] = 0xFF;
 166              		.loc 1 87 0
 167 0012 3B1C     		mov	r3, r7
 168 0014 0C33     		add	r3, r3, #12
 169 0016 FF22     		mov	r2, #255
 170 0018 1A70     		strb	r2, [r3]
  88:.\main.c      ****     array[1] = 0xFF;
 171              		.loc 1 88 0
 172 001a 3B1C     		mov	r3, r7
 173 001c 0C33     		add	r3, r3, #12
 174 001e FF22     		mov	r2, #255
 175 0020 5A70     		strb	r2, [r3, #1]
  89:.\main.c      ****     array[2] = servoID; //this is a broadcast ID.  Change for daisychained servos.
 176              		.loc 1 89 0
 177 0022 3B1C     		mov	r3, r7
 178 0024 0C33     		add	r3, r3, #12
 179 0026 FA1D     		add	r2, r7, #7
 180 0028 1278     		ldrb	r2, [r2]
 181 002a 9A70     		strb	r2, [r3, #2]
  90:.\main.c      ****     array[3] = 0x05;
 182              		.loc 1 90 0
 183 002c 3B1C     		mov	r3, r7
 184 002e 0C33     		add	r3, r3, #12
 185 0030 0522     		mov	r2, #5
 186 0032 DA70     		strb	r2, [r3, #3]
  91:.\main.c      ****     array[4] = 0x03; //write instruction
 187              		.loc 1 91 0
 188 0034 3B1C     		mov	r3, r7
 189 0036 0C33     		add	r3, r3, #12
 190 0038 0322     		mov	r2, #3
 191 003a 1A71     		strb	r2, [r3, #4]
  92:.\main.c      ****     array[5] = 0x1E;
 192              		.loc 1 92 0
 193 003c 3B1C     		mov	r3, r7
ARM GAS  C:\Users\Samuel\AppData\Local\Temp\ccQIA0Ey.s 			page 6


 194 003e 0C33     		add	r3, r3, #12
 195 0040 1E22     		mov	r2, #30
 196 0042 5A71     		strb	r2, [r3, #5]
  93:.\main.c      ****     array[6] = position;
 197              		.loc 1 93 0
 198 0044 3B1D     		add	r3, r7, #4
 199 0046 1B88     		ldrh	r3, [r3]
 200 0048 DAB2     		uxtb	r2, r3
 201 004a 3B1C     		mov	r3, r7
 202 004c 0C33     		add	r3, r3, #12
 203 004e 9A71     		strb	r2, [r3, #6]
  94:.\main.c      ****     array[7] = position >> 8;
 204              		.loc 1 94 0
 205 0050 3B1D     		add	r3, r7, #4
 206 0052 1B88     		ldrh	r3, [r3]
 207 0054 1B0A     		lsr	r3, r3, #8
 208 0056 9BB2     		uxth	r3, r3
 209 0058 DAB2     		uxtb	r2, r3
 210 005a 3B1C     		mov	r3, r7
 211 005c 0C33     		add	r3, r3, #12
 212 005e DA71     		strb	r2, [r3, #7]
  95:.\main.c      ****     array[8] = ~(servoID + 0x05 + 0x1E + array[6] + array[7] + 0x03);
 213              		.loc 1 95 0
 214 0060 3B1C     		mov	r3, r7
 215 0062 0C33     		add	r3, r3, #12
 216 0064 9A79     		ldrb	r2, [r3, #6]
 217 0066 FB1D     		add	r3, r7, #7
 218 0068 1B78     		ldrb	r3, [r3]
 219 006a D318     		add	r3, r2, r3
 220 006c DAB2     		uxtb	r2, r3
 221 006e 3B1C     		mov	r3, r7
 222 0070 0C33     		add	r3, r3, #12
 223 0072 DB79     		ldrb	r3, [r3, #7]
 224 0074 D318     		add	r3, r2, r3
 225 0076 DBB2     		uxtb	r3, r3
 226 0078 2633     		add	r3, r3, #38
 227 007a DBB2     		uxtb	r3, r3
 228 007c DB43     		mvn	r3, r3
 229 007e DAB2     		uxtb	r2, r3
 230 0080 3B1C     		mov	r3, r7
 231 0082 0C33     		add	r3, r3, #12
 232 0084 1A72     		strb	r2, [r3, #8]
  96:.\main.c      ****     
  97:.\main.c      ****     UART_1_PutArray(array, 0x09);
 233              		.loc 1 97 0
 234 0086 3B1C     		mov	r3, r7
 235 0088 0C33     		add	r3, r3, #12
 236 008a 181C     		mov	r0, r3
 237 008c 0921     		mov	r1, #9
 238 008e FFF7FEFF 		bl	UART_1_PutArray
  98:.\main.c      ****     
  99:.\main.c      **** }
 239              		.loc 1 99 0
 240 0092 BD46     		mov	sp, r7
 241 0094 06B0     		add	sp, sp, #24
 242              		@ sp needed
 243 0096 80BD     		pop	{r7, pc}
ARM GAS  C:\Users\Samuel\AppData\Local\Temp\ccQIA0Ey.s 			page 7


 244              		.cfi_endproc
 245              	.LFE34:
 246              		.size	ServoGoalPosition, .-ServoGoalPosition
 247              		.section	.text.SetServoTorque,"ax",%progbits
 248              		.align	2
 249              		.global	SetServoTorque
 250              		.code	16
 251              		.thumb_func
 252              		.type	SetServoTorque, %function
 253              	SetServoTorque:
 254              	.LFB35:
 100:.\main.c      ****     
 101:.\main.c      **** void SetServoTorque( uint8 servoID, uint16 torque){
 255              		.loc 1 101 0
 256              		.cfi_startproc
 257 0000 80B5     		push	{r7, lr}
 258              		.cfi_def_cfa_offset 8
 259              		.cfi_offset 7, -8
 260              		.cfi_offset 14, -4
 261 0002 86B0     		sub	sp, sp, #24
 262              		.cfi_def_cfa_offset 32
 263 0004 00AF     		add	r7, sp, #0
 264              		.cfi_def_cfa_register 7
 265 0006 0A1C     		mov	r2, r1
 266 0008 FB1D     		add	r3, r7, #7
 267 000a 011C     		add	r1, r0, #0
 268 000c 1970     		strb	r1, [r3]
 269 000e 3B1D     		add	r3, r7, #4
 270 0010 1A80     		strh	r2, [r3]
 102:.\main.c      ****     uint8 array[9];
 103:.\main.c      ****     
 104:.\main.c      ****     array[0] = 0xFF;
 271              		.loc 1 104 0
 272 0012 3B1C     		mov	r3, r7
 273 0014 0C33     		add	r3, r3, #12
 274 0016 FF22     		mov	r2, #255
 275 0018 1A70     		strb	r2, [r3]
 105:.\main.c      ****     array[1] = 0xFF;
 276              		.loc 1 105 0
 277 001a 3B1C     		mov	r3, r7
 278 001c 0C33     		add	r3, r3, #12
 279 001e FF22     		mov	r2, #255
 280 0020 5A70     		strb	r2, [r3, #1]
 106:.\main.c      ****     array[2] = servoID; 
 281              		.loc 1 106 0
 282 0022 3B1C     		mov	r3, r7
 283 0024 0C33     		add	r3, r3, #12
 284 0026 FA1D     		add	r2, r7, #7
 285 0028 1278     		ldrb	r2, [r2]
 286 002a 9A70     		strb	r2, [r3, #2]
 107:.\main.c      ****     array[3] = 0x05;
 287              		.loc 1 107 0
 288 002c 3B1C     		mov	r3, r7
 289 002e 0C33     		add	r3, r3, #12
 290 0030 0522     		mov	r2, #5
 291 0032 DA70     		strb	r2, [r3, #3]
 108:.\main.c      ****     array[4] = 0x03; //write instruction
ARM GAS  C:\Users\Samuel\AppData\Local\Temp\ccQIA0Ey.s 			page 8


 292              		.loc 1 108 0
 293 0034 3B1C     		mov	r3, r7
 294 0036 0C33     		add	r3, r3, #12
 295 0038 0322     		mov	r2, #3
 296 003a 1A71     		strb	r2, [r3, #4]
 109:.\main.c      ****     array[5] = 0x0E;
 297              		.loc 1 109 0
 298 003c 3B1C     		mov	r3, r7
 299 003e 0C33     		add	r3, r3, #12
 300 0040 0E22     		mov	r2, #14
 301 0042 5A71     		strb	r2, [r3, #5]
 110:.\main.c      ****     array[6] = torque;
 302              		.loc 1 110 0
 303 0044 3B1D     		add	r3, r7, #4
 304 0046 1B88     		ldrh	r3, [r3]
 305 0048 DAB2     		uxtb	r2, r3
 306 004a 3B1C     		mov	r3, r7
 307 004c 0C33     		add	r3, r3, #12
 308 004e 9A71     		strb	r2, [r3, #6]
 111:.\main.c      ****     array[7] = torque >> 8;
 309              		.loc 1 111 0
 310 0050 3B1D     		add	r3, r7, #4
 311 0052 1B88     		ldrh	r3, [r3]
 312 0054 1B0A     		lsr	r3, r3, #8
 313 0056 9BB2     		uxth	r3, r3
 314 0058 DAB2     		uxtb	r2, r3
 315 005a 3B1C     		mov	r3, r7
 316 005c 0C33     		add	r3, r3, #12
 317 005e DA71     		strb	r2, [r3, #7]
 112:.\main.c      ****     array[8] = ~(servoID + 0x05 + 0x0E + array[6] + array[7] + 0x03);
 318              		.loc 1 112 0
 319 0060 3B1C     		mov	r3, r7
 320 0062 0C33     		add	r3, r3, #12
 321 0064 9A79     		ldrb	r2, [r3, #6]
 322 0066 FB1D     		add	r3, r7, #7
 323 0068 1B78     		ldrb	r3, [r3]
 324 006a D318     		add	r3, r2, r3
 325 006c DAB2     		uxtb	r2, r3
 326 006e 3B1C     		mov	r3, r7
 327 0070 0C33     		add	r3, r3, #12
 328 0072 DB79     		ldrb	r3, [r3, #7]
 329 0074 D318     		add	r3, r2, r3
 330 0076 DBB2     		uxtb	r3, r3
 331 0078 1633     		add	r3, r3, #22
 332 007a DBB2     		uxtb	r3, r3
 333 007c DB43     		mvn	r3, r3
 334 007e DAB2     		uxtb	r2, r3
 335 0080 3B1C     		mov	r3, r7
 336 0082 0C33     		add	r3, r3, #12
 337 0084 1A72     		strb	r2, [r3, #8]
 113:.\main.c      ****     
 114:.\main.c      ****     UART_1_PutArray(array, 0x09);
 338              		.loc 1 114 0
 339 0086 3B1C     		mov	r3, r7
 340 0088 0C33     		add	r3, r3, #12
 341 008a 181C     		mov	r0, r3
 342 008c 0921     		mov	r1, #9
ARM GAS  C:\Users\Samuel\AppData\Local\Temp\ccQIA0Ey.s 			page 9


 343 008e FFF7FEFF 		bl	UART_1_PutArray
 115:.\main.c      ****     
 116:.\main.c      **** }    
 344              		.loc 1 116 0
 345 0092 BD46     		mov	sp, r7
 346 0094 06B0     		add	sp, sp, #24
 347              		@ sp needed
 348 0096 80BD     		pop	{r7, pc}
 349              		.cfi_endproc
 350              	.LFE35:
 351              		.size	SetServoTorque, .-SetServoTorque
 352              		.section	.text.ServoSpeed,"ax",%progbits
 353              		.align	2
 354              		.global	ServoSpeed
 355              		.code	16
 356              		.thumb_func
 357              		.type	ServoSpeed, %function
 358              	ServoSpeed:
 359              	.LFB36:
 117:.\main.c      **** 
 118:.\main.c      **** void ServoSpeed( uint8 servoID, uint16 speed){
 360              		.loc 1 118 0
 361              		.cfi_startproc
 362 0000 80B5     		push	{r7, lr}
 363              		.cfi_def_cfa_offset 8
 364              		.cfi_offset 7, -8
 365              		.cfi_offset 14, -4
 366 0002 86B0     		sub	sp, sp, #24
 367              		.cfi_def_cfa_offset 32
 368 0004 00AF     		add	r7, sp, #0
 369              		.cfi_def_cfa_register 7
 370 0006 0A1C     		mov	r2, r1
 371 0008 FB1D     		add	r3, r7, #7
 372 000a 011C     		add	r1, r0, #0
 373 000c 1970     		strb	r1, [r3]
 374 000e 3B1D     		add	r3, r7, #4
 375 0010 1A80     		strh	r2, [r3]
 119:.\main.c      ****     uint8 array[9];
 120:.\main.c      ****     
 121:.\main.c      ****     array[0] = 0xFF;
 376              		.loc 1 121 0
 377 0012 3B1C     		mov	r3, r7
 378 0014 0C33     		add	r3, r3, #12
 379 0016 FF22     		mov	r2, #255
 380 0018 1A70     		strb	r2, [r3]
 122:.\main.c      ****     array[1] = 0xFF;
 381              		.loc 1 122 0
 382 001a 3B1C     		mov	r3, r7
 383 001c 0C33     		add	r3, r3, #12
 384 001e FF22     		mov	r2, #255
 385 0020 5A70     		strb	r2, [r3, #1]
 123:.\main.c      ****     array[2] = servoID; //this is a broadcast ID.  Change for daisychained servos.
 386              		.loc 1 123 0
 387 0022 3B1C     		mov	r3, r7
 388 0024 0C33     		add	r3, r3, #12
 389 0026 FA1D     		add	r2, r7, #7
 390 0028 1278     		ldrb	r2, [r2]
ARM GAS  C:\Users\Samuel\AppData\Local\Temp\ccQIA0Ey.s 			page 10


 391 002a 9A70     		strb	r2, [r3, #2]
 124:.\main.c      ****     array[3] = 0x05;
 392              		.loc 1 124 0
 393 002c 3B1C     		mov	r3, r7
 394 002e 0C33     		add	r3, r3, #12
 395 0030 0522     		mov	r2, #5
 396 0032 DA70     		strb	r2, [r3, #3]
 125:.\main.c      ****     array[4] = 0x03; //write instruction
 397              		.loc 1 125 0
 398 0034 3B1C     		mov	r3, r7
 399 0036 0C33     		add	r3, r3, #12
 400 0038 0322     		mov	r2, #3
 401 003a 1A71     		strb	r2, [r3, #4]
 126:.\main.c      ****     array[5] = 0x20;
 402              		.loc 1 126 0
 403 003c 3B1C     		mov	r3, r7
 404 003e 0C33     		add	r3, r3, #12
 405 0040 2022     		mov	r2, #32
 406 0042 5A71     		strb	r2, [r3, #5]
 127:.\main.c      ****     array[6] = speed;
 407              		.loc 1 127 0
 408 0044 3B1D     		add	r3, r7, #4
 409 0046 1B88     		ldrh	r3, [r3]
 410 0048 DAB2     		uxtb	r2, r3
 411 004a 3B1C     		mov	r3, r7
 412 004c 0C33     		add	r3, r3, #12
 413 004e 9A71     		strb	r2, [r3, #6]
 128:.\main.c      ****     array[7] = speed >> 8;
 414              		.loc 1 128 0
 415 0050 3B1D     		add	r3, r7, #4
 416 0052 1B88     		ldrh	r3, [r3]
 417 0054 1B0A     		lsr	r3, r3, #8
 418 0056 9BB2     		uxth	r3, r3
 419 0058 DAB2     		uxtb	r2, r3
 420 005a 3B1C     		mov	r3, r7
 421 005c 0C33     		add	r3, r3, #12
 422 005e DA71     		strb	r2, [r3, #7]
 129:.\main.c      ****     array[8] = ~(servoID + 0x05 + 0x20 + array[6] + array[7] + 0x03);
 423              		.loc 1 129 0
 424 0060 3B1C     		mov	r3, r7
 425 0062 0C33     		add	r3, r3, #12
 426 0064 9A79     		ldrb	r2, [r3, #6]
 427 0066 FB1D     		add	r3, r7, #7
 428 0068 1B78     		ldrb	r3, [r3]
 429 006a D318     		add	r3, r2, r3
 430 006c DAB2     		uxtb	r2, r3
 431 006e 3B1C     		mov	r3, r7
 432 0070 0C33     		add	r3, r3, #12
 433 0072 DB79     		ldrb	r3, [r3, #7]
 434 0074 D318     		add	r3, r2, r3
 435 0076 DBB2     		uxtb	r3, r3
 436 0078 2833     		add	r3, r3, #40
 437 007a DBB2     		uxtb	r3, r3
 438 007c DB43     		mvn	r3, r3
 439 007e DAB2     		uxtb	r2, r3
 440 0080 3B1C     		mov	r3, r7
 441 0082 0C33     		add	r3, r3, #12
ARM GAS  C:\Users\Samuel\AppData\Local\Temp\ccQIA0Ey.s 			page 11


 442 0084 1A72     		strb	r2, [r3, #8]
 130:.\main.c      ****     
 131:.\main.c      ****     UART_1_PutArray(array, 0x09);
 443              		.loc 1 131 0
 444 0086 3B1C     		mov	r3, r7
 445 0088 0C33     		add	r3, r3, #12
 446 008a 181C     		mov	r0, r3
 447 008c 0921     		mov	r1, #9
 448 008e FFF7FEFF 		bl	UART_1_PutArray
 132:.\main.c      ****     
 133:.\main.c      **** }
 449              		.loc 1 133 0
 450 0092 BD46     		mov	sp, r7
 451 0094 06B0     		add	sp, sp, #24
 452              		@ sp needed
 453 0096 80BD     		pop	{r7, pc}
 454              		.cfi_endproc
 455              	.LFE36:
 456              		.size	ServoSpeed, .-ServoSpeed
 457              		.section	.text.ReadRequest,"ax",%progbits
 458              		.align	2
 459              		.global	ReadRequest
 460              		.code	16
 461              		.thumb_func
 462              		.type	ReadRequest, %function
 463              	ReadRequest:
 464              	.LFB37:
 134:.\main.c      **** 
 135:.\main.c      **** void ReadRequest(uint8 id,uint16 address, uint8 length){ // note that this uses a broadcast ID - it
 465              		.loc 1 135 0
 466              		.cfi_startproc
 467 0000 80B5     		push	{r7, lr}
 468              		.cfi_def_cfa_offset 8
 469              		.cfi_offset 7, -8
 470              		.cfi_offset 14, -4
 471 0002 84B0     		sub	sp, sp, #16
 472              		.cfi_def_cfa_offset 24
 473 0004 00AF     		add	r7, sp, #0
 474              		.cfi_def_cfa_register 7
 475 0006 FB1D     		add	r3, r7, #7
 476 0008 1870     		strb	r0, [r3]
 477 000a 3B1D     		add	r3, r7, #4
 478 000c 1980     		strh	r1, [r3]
 479 000e BB1D     		add	r3, r7, #6
 480 0010 1A70     		strb	r2, [r3]
 136:.\main.c      ****     uint8 array[8];
 137:.\main.c      ****     
 138:.\main.c      ****     array[0] = 0xFE;
 481              		.loc 1 138 0
 482 0012 3B1C     		mov	r3, r7
 483 0014 0833     		add	r3, r3, #8
 484 0016 FE22     		mov	r2, #254
 485 0018 1A70     		strb	r2, [r3]
 139:.\main.c      ****     array[1] = 0xFE;
 486              		.loc 1 139 0
 487 001a 3B1C     		mov	r3, r7
 488 001c 0833     		add	r3, r3, #8
ARM GAS  C:\Users\Samuel\AppData\Local\Temp\ccQIA0Ey.s 			page 12


 489 001e FE22     		mov	r2, #254
 490 0020 5A70     		strb	r2, [r3, #1]
 140:.\main.c      ****     array[2] = id; //this is a broadcast ID.  Change for daisychained servos.
 491              		.loc 1 140 0
 492 0022 3B1C     		mov	r3, r7
 493 0024 0833     		add	r3, r3, #8
 494 0026 FA1D     		add	r2, r7, #7
 495 0028 1278     		ldrb	r2, [r2]
 496 002a 9A70     		strb	r2, [r3, #2]
 141:.\main.c      ****     array[3] = 0x04; //length = number of parameters + 2
 497              		.loc 1 141 0
 498 002c 3B1C     		mov	r3, r7
 499 002e 0833     		add	r3, r3, #8
 500 0030 0422     		mov	r2, #4
 501 0032 DA70     		strb	r2, [r3, #3]
 142:.\main.c      ****     array[4] = 0x02; //write instruction
 502              		.loc 1 142 0
 503 0034 3B1C     		mov	r3, r7
 504 0036 0833     		add	r3, r3, #8
 505 0038 0222     		mov	r2, #2
 506 003a 1A71     		strb	r2, [r3, #4]
 143:.\main.c      ****     array[5] = address;
 507              		.loc 1 143 0
 508 003c 3B1D     		add	r3, r7, #4
 509 003e 1B88     		ldrh	r3, [r3]
 510 0040 DAB2     		uxtb	r2, r3
 511 0042 3B1C     		mov	r3, r7
 512 0044 0833     		add	r3, r3, #8
 513 0046 5A71     		strb	r2, [r3, #5]
 144:.\main.c      ****     array[6] = length;
 514              		.loc 1 144 0
 515 0048 3B1C     		mov	r3, r7
 516 004a 0833     		add	r3, r3, #8
 517 004c BA1D     		add	r2, r7, #6
 518 004e 1278     		ldrb	r2, [r2]
 519 0050 9A71     		strb	r2, [r3, #6]
 145:.\main.c      ****     array[7]= ~(id + 0x04 + address + length +0x02);
 520              		.loc 1 145 0
 521 0052 3B1D     		add	r3, r7, #4
 522 0054 1B88     		ldrh	r3, [r3]
 523 0056 DAB2     		uxtb	r2, r3
 524 0058 FB1D     		add	r3, r7, #7
 525 005a 1B78     		ldrb	r3, [r3]
 526 005c D318     		add	r3, r2, r3
 527 005e DAB2     		uxtb	r2, r3
 528 0060 BB1D     		add	r3, r7, #6
 529 0062 1B78     		ldrb	r3, [r3]
 530 0064 D318     		add	r3, r2, r3
 531 0066 DBB2     		uxtb	r3, r3
 532 0068 0633     		add	r3, r3, #6
 533 006a DBB2     		uxtb	r3, r3
 534 006c DB43     		mvn	r3, r3
 535 006e DAB2     		uxtb	r2, r3
 536 0070 3B1C     		mov	r3, r7
 537 0072 0833     		add	r3, r3, #8
 538 0074 DA71     		strb	r2, [r3, #7]
 146:.\main.c      ****  
ARM GAS  C:\Users\Samuel\AppData\Local\Temp\ccQIA0Ey.s 			page 13


 147:.\main.c      ****     
 148:.\main.c      ****     UART_1_PutArray(array, 0x08);
 539              		.loc 1 148 0
 540 0076 3B1C     		mov	r3, r7
 541 0078 0833     		add	r3, r3, #8
 542 007a 181C     		mov	r0, r3
 543 007c 0821     		mov	r1, #8
 544 007e FFF7FEFF 		bl	UART_1_PutArray
 149:.\main.c      ****     
 150:.\main.c      **** }
 545              		.loc 1 150 0
 546 0082 BD46     		mov	sp, r7
 547 0084 04B0     		add	sp, sp, #16
 548              		@ sp needed
 549 0086 80BD     		pop	{r7, pc}
 550              		.cfi_endproc
 551              	.LFE37:
 552              		.size	ReadRequest, .-ReadRequest
 553              		.section	.text.UartWriteLED,"ax",%progbits
 554              		.align	2
 555              		.global	UartWriteLED
 556              		.code	16
 557              		.thumb_func
 558              		.type	UartWriteLED, %function
 559              	UartWriteLED:
 560              	.LFB38:
 151:.\main.c      **** 
 152:.\main.c      **** void UartWriteLED( uint8 ledvalue){
 561              		.loc 1 152 0
 562              		.cfi_startproc
 563 0000 80B5     		push	{r7, lr}
 564              		.cfi_def_cfa_offset 8
 565              		.cfi_offset 7, -8
 566              		.cfi_offset 14, -4
 567 0002 84B0     		sub	sp, sp, #16
 568              		.cfi_def_cfa_offset 24
 569 0004 00AF     		add	r7, sp, #0
 570              		.cfi_def_cfa_register 7
 571 0006 021C     		mov	r2, r0
 572 0008 FB1D     		add	r3, r7, #7
 573 000a 1A70     		strb	r2, [r3]
 153:.\main.c      ****     uint8 array[8];
 154:.\main.c      ****     
 155:.\main.c      ****     array[0] = 0xFE;
 574              		.loc 1 155 0
 575 000c 3B1C     		mov	r3, r7
 576 000e 0833     		add	r3, r3, #8
 577 0010 FE22     		mov	r2, #254
 578 0012 1A70     		strb	r2, [r3]
 156:.\main.c      ****     array[1] = 0xFE;
 579              		.loc 1 156 0
 580 0014 3B1C     		mov	r3, r7
 581 0016 0833     		add	r3, r3, #8
 582 0018 FE22     		mov	r2, #254
 583 001a 5A70     		strb	r2, [r3, #1]
 157:.\main.c      ****     array[2] = 0x0FE; //this is a broadcast ID.  Change for daisychained servos.
 584              		.loc 1 157 0
ARM GAS  C:\Users\Samuel\AppData\Local\Temp\ccQIA0Ey.s 			page 14


 585 001c 3B1C     		mov	r3, r7
 586 001e 0833     		add	r3, r3, #8
 587 0020 FE22     		mov	r2, #254
 588 0022 9A70     		strb	r2, [r3, #2]
 158:.\main.c      ****     array[3] = 0x04;
 589              		.loc 1 158 0
 590 0024 3B1C     		mov	r3, r7
 591 0026 0833     		add	r3, r3, #8
 592 0028 0422     		mov	r2, #4
 593 002a DA70     		strb	r2, [r3, #3]
 159:.\main.c      ****     array[4] = 0x03; //write instruction
 594              		.loc 1 159 0
 595 002c 3B1C     		mov	r3, r7
 596 002e 0833     		add	r3, r3, #8
 597 0030 0322     		mov	r2, #3
 598 0032 1A71     		strb	r2, [r3, #4]
 160:.\main.c      ****     array[5] = 0x19;
 599              		.loc 1 160 0
 600 0034 3B1C     		mov	r3, r7
 601 0036 0833     		add	r3, r3, #8
 602 0038 1922     		mov	r2, #25
 603 003a 5A71     		strb	r2, [r3, #5]
 161:.\main.c      ****     array[6] = ledvalue;
 604              		.loc 1 161 0
 605 003c 3B1C     		mov	r3, r7
 606 003e 0833     		add	r3, r3, #8
 607 0040 FA1D     		add	r2, r7, #7
 608 0042 1278     		ldrb	r2, [r2]
 609 0044 9A71     		strb	r2, [r3, #6]
 162:.\main.c      ****     array[7] = ~(0x0FE + 0x04 + 0x19 + ledvalue + 0x03);
 610              		.loc 1 162 0
 611 0046 FB1D     		add	r3, r7, #7
 612 0048 1B78     		ldrb	r3, [r3]
 613 004a 1E33     		add	r3, r3, #30
 614 004c DBB2     		uxtb	r3, r3
 615 004e DB43     		mvn	r3, r3
 616 0050 DAB2     		uxtb	r2, r3
 617 0052 3B1C     		mov	r3, r7
 618 0054 0833     		add	r3, r3, #8
 619 0056 DA71     		strb	r2, [r3, #7]
 163:.\main.c      ****     
 164:.\main.c      ****     UART_1_PutArray(array, 0x08);
 620              		.loc 1 164 0
 621 0058 3B1C     		mov	r3, r7
 622 005a 0833     		add	r3, r3, #8
 623 005c 181C     		mov	r0, r3
 624 005e 0821     		mov	r1, #8
 625 0060 FFF7FEFF 		bl	UART_1_PutArray
 165:.\main.c      ****     
 166:.\main.c      **** }
 626              		.loc 1 166 0
 627 0064 BD46     		mov	sp, r7
 628 0066 04B0     		add	sp, sp, #16
 629              		@ sp needed
 630 0068 80BD     		pop	{r7, pc}
 631              		.cfi_endproc
 632              	.LFE38:
ARM GAS  C:\Users\Samuel\AppData\Local\Temp\ccQIA0Ey.s 			page 15


 633              		.size	UartWriteLED, .-UartWriteLED
 634 006a C046     		.text
 635              	.Letext0:
 636              		.file 2 ".\\Generated_Source\\PSoC4/cytypes.h"