ARM GAS  C:\Users\Samuel\AppData\Local\Temp\ccG3RDX7.s 			page 1


   1              		.cpu cortex-m0
   2              		.fpu softvfp
   3              		.eabi_attribute 20, 1
   4              		.eabi_attribute 21, 1
   5              		.eabi_attribute 23, 3
   6              		.eabi_attribute 24, 1
   7              		.eabi_attribute 25, 1
   8              		.eabi_attribute 26, 1
   9              		.eabi_attribute 30, 6
  10              		.eabi_attribute 34, 0
  11              		.eabi_attribute 18, 4
  12              		.code	16
  13              		.file	"UART_1_PM.c"
  14              		.text
  15              	.Ltext0:
  16              		.cfi_sections	.debug_frame
  17              		.bss
  18              		.align	2
  19              	UART_1_backup:
  20 0000 0000     		.space	2
  21 0002 0000     		.section	.text.UART_1_SaveConfig,"ax",%progbits
  22              		.align	2
  23              		.global	UART_1_SaveConfig
  24              		.code	16
  25              		.thumb_func
  26              		.type	UART_1_SaveConfig, %function
  27              	UART_1_SaveConfig:
  28              	.LFB0:
  29              		.file 1 ".\\Generated_Source\\PSoC4\\UART_1_PM.c"
   1:.\Generated_Source\PSoC4/UART_1_PM.c **** /*******************************************************************************
   2:.\Generated_Source\PSoC4/UART_1_PM.c **** * File Name: UART_1_PM.c
   3:.\Generated_Source\PSoC4/UART_1_PM.c **** * Version 2.30
   4:.\Generated_Source\PSoC4/UART_1_PM.c **** *
   5:.\Generated_Source\PSoC4/UART_1_PM.c **** * Description:
   6:.\Generated_Source\PSoC4/UART_1_PM.c **** *  This file provides Sleep/WakeUp APIs functionality.
   7:.\Generated_Source\PSoC4/UART_1_PM.c **** *
   8:.\Generated_Source\PSoC4/UART_1_PM.c **** * Note:
   9:.\Generated_Source\PSoC4/UART_1_PM.c **** *
  10:.\Generated_Source\PSoC4/UART_1_PM.c **** ********************************************************************************
  11:.\Generated_Source\PSoC4/UART_1_PM.c **** * Copyright 2008-2012, Cypress Semiconductor Corporation.  All rights reserved.
  12:.\Generated_Source\PSoC4/UART_1_PM.c **** * You may use this file only in accordance with the license, terms, conditions,
  13:.\Generated_Source\PSoC4/UART_1_PM.c **** * disclaimers, and limitations in the end user license agreement accompanying
  14:.\Generated_Source\PSoC4/UART_1_PM.c **** * the software package with which this file was provided.
  15:.\Generated_Source\PSoC4/UART_1_PM.c **** *******************************************************************************/
  16:.\Generated_Source\PSoC4/UART_1_PM.c **** 
  17:.\Generated_Source\PSoC4/UART_1_PM.c **** #include "UART_1.h"
  18:.\Generated_Source\PSoC4/UART_1_PM.c **** 
  19:.\Generated_Source\PSoC4/UART_1_PM.c **** 
  20:.\Generated_Source\PSoC4/UART_1_PM.c **** /***************************************
  21:.\Generated_Source\PSoC4/UART_1_PM.c **** * Local data allocation
  22:.\Generated_Source\PSoC4/UART_1_PM.c **** ***************************************/
  23:.\Generated_Source\PSoC4/UART_1_PM.c **** 
  24:.\Generated_Source\PSoC4/UART_1_PM.c **** static UART_1_BACKUP_STRUCT  UART_1_backup =
  25:.\Generated_Source\PSoC4/UART_1_PM.c **** {
  26:.\Generated_Source\PSoC4/UART_1_PM.c ****     /* enableState - disabled */
  27:.\Generated_Source\PSoC4/UART_1_PM.c ****     0u,
  28:.\Generated_Source\PSoC4/UART_1_PM.c **** };
ARM GAS  C:\Users\Samuel\AppData\Local\Temp\ccG3RDX7.s 			page 2


  29:.\Generated_Source\PSoC4/UART_1_PM.c **** 
  30:.\Generated_Source\PSoC4/UART_1_PM.c **** 
  31:.\Generated_Source\PSoC4/UART_1_PM.c **** 
  32:.\Generated_Source\PSoC4/UART_1_PM.c **** /*******************************************************************************
  33:.\Generated_Source\PSoC4/UART_1_PM.c **** * Function Name: UART_1_SaveConfig
  34:.\Generated_Source\PSoC4/UART_1_PM.c **** ********************************************************************************
  35:.\Generated_Source\PSoC4/UART_1_PM.c **** *
  36:.\Generated_Source\PSoC4/UART_1_PM.c **** * Summary:
  37:.\Generated_Source\PSoC4/UART_1_PM.c **** *  Saves the current user configuration.
  38:.\Generated_Source\PSoC4/UART_1_PM.c **** *
  39:.\Generated_Source\PSoC4/UART_1_PM.c **** * Parameters:
  40:.\Generated_Source\PSoC4/UART_1_PM.c **** *  None.
  41:.\Generated_Source\PSoC4/UART_1_PM.c **** *
  42:.\Generated_Source\PSoC4/UART_1_PM.c **** * Return:
  43:.\Generated_Source\PSoC4/UART_1_PM.c **** *  None.
  44:.\Generated_Source\PSoC4/UART_1_PM.c **** *
  45:.\Generated_Source\PSoC4/UART_1_PM.c **** * Global Variables:
  46:.\Generated_Source\PSoC4/UART_1_PM.c **** *  UART_1_backup - modified when non-retention registers are saved.
  47:.\Generated_Source\PSoC4/UART_1_PM.c **** *
  48:.\Generated_Source\PSoC4/UART_1_PM.c **** * Reentrant:
  49:.\Generated_Source\PSoC4/UART_1_PM.c **** *  No.
  50:.\Generated_Source\PSoC4/UART_1_PM.c **** *
  51:.\Generated_Source\PSoC4/UART_1_PM.c **** *******************************************************************************/
  52:.\Generated_Source\PSoC4/UART_1_PM.c **** void UART_1_SaveConfig(void)
  53:.\Generated_Source\PSoC4/UART_1_PM.c **** {
  30              		.loc 1 53 0
  31              		.cfi_startproc
  32 0000 80B5     		push	{r7, lr}
  33              		.cfi_def_cfa_offset 8
  34              		.cfi_offset 7, -8
  35              		.cfi_offset 14, -4
  36 0002 00AF     		add	r7, sp, #0
  37              		.cfi_def_cfa_register 7
  54:.\Generated_Source\PSoC4/UART_1_PM.c ****     #if (CY_UDB_V0)
  55:.\Generated_Source\PSoC4/UART_1_PM.c **** 
  56:.\Generated_Source\PSoC4/UART_1_PM.c ****         #if(UART_1_CONTROL_REG_REMOVED == 0u)
  57:.\Generated_Source\PSoC4/UART_1_PM.c ****             UART_1_backup.cr = UART_1_CONTROL_REG;
  58:.\Generated_Source\PSoC4/UART_1_PM.c ****         #endif /* End UART_1_CONTROL_REG_REMOVED */
  59:.\Generated_Source\PSoC4/UART_1_PM.c **** 
  60:.\Generated_Source\PSoC4/UART_1_PM.c ****         #if( (UART_1_RX_ENABLED) || (UART_1_HD_ENABLED) )
  61:.\Generated_Source\PSoC4/UART_1_PM.c ****             UART_1_backup.rx_period = UART_1_RXBITCTR_PERIOD_REG;
  62:.\Generated_Source\PSoC4/UART_1_PM.c ****             UART_1_backup.rx_mask = UART_1_RXSTATUS_MASK_REG;
  63:.\Generated_Source\PSoC4/UART_1_PM.c ****             #if (UART_1_RXHW_ADDRESS_ENABLED)
  64:.\Generated_Source\PSoC4/UART_1_PM.c ****                 UART_1_backup.rx_addr1 = UART_1_RXADDRESS1_REG;
  65:.\Generated_Source\PSoC4/UART_1_PM.c ****                 UART_1_backup.rx_addr2 = UART_1_RXADDRESS2_REG;
  66:.\Generated_Source\PSoC4/UART_1_PM.c ****             #endif /* End UART_1_RXHW_ADDRESS_ENABLED */
  67:.\Generated_Source\PSoC4/UART_1_PM.c ****         #endif /* End UART_1_RX_ENABLED | UART_1_HD_ENABLED*/
  68:.\Generated_Source\PSoC4/UART_1_PM.c **** 
  69:.\Generated_Source\PSoC4/UART_1_PM.c ****         #if(UART_1_TX_ENABLED)
  70:.\Generated_Source\PSoC4/UART_1_PM.c ****             #if(UART_1_TXCLKGEN_DP)
  71:.\Generated_Source\PSoC4/UART_1_PM.c ****                 UART_1_backup.tx_clk_ctr = UART_1_TXBITCLKGEN_CTR_REG;
  72:.\Generated_Source\PSoC4/UART_1_PM.c ****                 UART_1_backup.tx_clk_compl = UART_1_TXBITCLKTX_COMPLETE_REG;
  73:.\Generated_Source\PSoC4/UART_1_PM.c ****             #else
  74:.\Generated_Source\PSoC4/UART_1_PM.c ****                 UART_1_backup.tx_period = UART_1_TXBITCTR_PERIOD_REG;
  75:.\Generated_Source\PSoC4/UART_1_PM.c ****             #endif /*End UART_1_TXCLKGEN_DP */
  76:.\Generated_Source\PSoC4/UART_1_PM.c ****             UART_1_backup.tx_mask = UART_1_TXSTATUS_MASK_REG;
  77:.\Generated_Source\PSoC4/UART_1_PM.c ****         #endif /*End UART_1_TX_ENABLED */
ARM GAS  C:\Users\Samuel\AppData\Local\Temp\ccG3RDX7.s 			page 3


  78:.\Generated_Source\PSoC4/UART_1_PM.c **** 
  79:.\Generated_Source\PSoC4/UART_1_PM.c **** 
  80:.\Generated_Source\PSoC4/UART_1_PM.c ****     #else /* CY_UDB_V1 */
  81:.\Generated_Source\PSoC4/UART_1_PM.c **** 
  82:.\Generated_Source\PSoC4/UART_1_PM.c ****         #if(UART_1_CONTROL_REG_REMOVED == 0u)
  83:.\Generated_Source\PSoC4/UART_1_PM.c ****             UART_1_backup.cr = UART_1_CONTROL_REG;
  84:.\Generated_Source\PSoC4/UART_1_PM.c ****         #endif /* End UART_1_CONTROL_REG_REMOVED */
  85:.\Generated_Source\PSoC4/UART_1_PM.c **** 
  86:.\Generated_Source\PSoC4/UART_1_PM.c ****     #endif  /* End CY_UDB_V0 */
  87:.\Generated_Source\PSoC4/UART_1_PM.c **** }
  38              		.loc 1 87 0
  39 0004 BD46     		mov	sp, r7
  40              		@ sp needed
  41 0006 80BD     		pop	{r7, pc}
  42              		.cfi_endproc
  43              	.LFE0:
  44              		.size	UART_1_SaveConfig, .-UART_1_SaveConfig
  45              		.section	.text.UART_1_RestoreConfig,"ax",%progbits
  46              		.align	2
  47              		.global	UART_1_RestoreConfig
  48              		.code	16
  49              		.thumb_func
  50              		.type	UART_1_RestoreConfig, %function
  51              	UART_1_RestoreConfig:
  52              	.LFB1:
  88:.\Generated_Source\PSoC4/UART_1_PM.c **** 
  89:.\Generated_Source\PSoC4/UART_1_PM.c **** 
  90:.\Generated_Source\PSoC4/UART_1_PM.c **** /*******************************************************************************
  91:.\Generated_Source\PSoC4/UART_1_PM.c **** * Function Name: UART_1_RestoreConfig
  92:.\Generated_Source\PSoC4/UART_1_PM.c **** ********************************************************************************
  93:.\Generated_Source\PSoC4/UART_1_PM.c **** *
  94:.\Generated_Source\PSoC4/UART_1_PM.c **** * Summary:
  95:.\Generated_Source\PSoC4/UART_1_PM.c **** *  Restores the current user configuration.
  96:.\Generated_Source\PSoC4/UART_1_PM.c **** *
  97:.\Generated_Source\PSoC4/UART_1_PM.c **** * Parameters:
  98:.\Generated_Source\PSoC4/UART_1_PM.c **** *  None.
  99:.\Generated_Source\PSoC4/UART_1_PM.c **** *
 100:.\Generated_Source\PSoC4/UART_1_PM.c **** * Return:
 101:.\Generated_Source\PSoC4/UART_1_PM.c **** *  None.
 102:.\Generated_Source\PSoC4/UART_1_PM.c **** *
 103:.\Generated_Source\PSoC4/UART_1_PM.c **** * Global Variables:
 104:.\Generated_Source\PSoC4/UART_1_PM.c **** *  UART_1_backup - used when non-retention registers are restored.
 105:.\Generated_Source\PSoC4/UART_1_PM.c **** *
 106:.\Generated_Source\PSoC4/UART_1_PM.c **** * Reentrant:
 107:.\Generated_Source\PSoC4/UART_1_PM.c **** *  No.
 108:.\Generated_Source\PSoC4/UART_1_PM.c **** *
 109:.\Generated_Source\PSoC4/UART_1_PM.c **** *******************************************************************************/
 110:.\Generated_Source\PSoC4/UART_1_PM.c **** void UART_1_RestoreConfig(void)
 111:.\Generated_Source\PSoC4/UART_1_PM.c **** {
  53              		.loc 1 111 0
  54              		.cfi_startproc
  55 0000 80B5     		push	{r7, lr}
  56              		.cfi_def_cfa_offset 8
  57              		.cfi_offset 7, -8
  58              		.cfi_offset 14, -4
  59 0002 00AF     		add	r7, sp, #0
  60              		.cfi_def_cfa_register 7
ARM GAS  C:\Users\Samuel\AppData\Local\Temp\ccG3RDX7.s 			page 4


 112:.\Generated_Source\PSoC4/UART_1_PM.c **** 
 113:.\Generated_Source\PSoC4/UART_1_PM.c ****     #if (CY_UDB_V0)
 114:.\Generated_Source\PSoC4/UART_1_PM.c **** 
 115:.\Generated_Source\PSoC4/UART_1_PM.c ****         #if(UART_1_CONTROL_REG_REMOVED == 0u)
 116:.\Generated_Source\PSoC4/UART_1_PM.c ****             UART_1_CONTROL_REG = UART_1_backup.cr;
 117:.\Generated_Source\PSoC4/UART_1_PM.c ****         #endif /* End UART_1_CONTROL_REG_REMOVED */
 118:.\Generated_Source\PSoC4/UART_1_PM.c **** 
 119:.\Generated_Source\PSoC4/UART_1_PM.c ****         #if( (UART_1_RX_ENABLED) || (UART_1_HD_ENABLED) )
 120:.\Generated_Source\PSoC4/UART_1_PM.c ****             UART_1_RXBITCTR_PERIOD_REG = UART_1_backup.rx_period;
 121:.\Generated_Source\PSoC4/UART_1_PM.c ****             UART_1_RXSTATUS_MASK_REG = UART_1_backup.rx_mask;
 122:.\Generated_Source\PSoC4/UART_1_PM.c ****             #if (UART_1_RXHW_ADDRESS_ENABLED)
 123:.\Generated_Source\PSoC4/UART_1_PM.c ****                 UART_1_RXADDRESS1_REG = UART_1_backup.rx_addr1;
 124:.\Generated_Source\PSoC4/UART_1_PM.c ****                 UART_1_RXADDRESS2_REG = UART_1_backup.rx_addr2;
 125:.\Generated_Source\PSoC4/UART_1_PM.c ****             #endif /* End UART_1_RXHW_ADDRESS_ENABLED */
 126:.\Generated_Source\PSoC4/UART_1_PM.c ****         #endif  /* End (UART_1_RX_ENABLED) || (UART_1_HD_ENABLED) */
 127:.\Generated_Source\PSoC4/UART_1_PM.c **** 
 128:.\Generated_Source\PSoC4/UART_1_PM.c ****         #if(UART_1_TX_ENABLED)
 129:.\Generated_Source\PSoC4/UART_1_PM.c ****             #if(UART_1_TXCLKGEN_DP)
 130:.\Generated_Source\PSoC4/UART_1_PM.c ****                 UART_1_TXBITCLKGEN_CTR_REG = UART_1_backup.tx_clk_ctr;
 131:.\Generated_Source\PSoC4/UART_1_PM.c ****                 UART_1_TXBITCLKTX_COMPLETE_REG = UART_1_backup.tx_clk_compl;
 132:.\Generated_Source\PSoC4/UART_1_PM.c ****             #else
 133:.\Generated_Source\PSoC4/UART_1_PM.c ****                 UART_1_TXBITCTR_PERIOD_REG = UART_1_backup.tx_period;
 134:.\Generated_Source\PSoC4/UART_1_PM.c ****             #endif /*End UART_1_TXCLKGEN_DP */
 135:.\Generated_Source\PSoC4/UART_1_PM.c ****             UART_1_TXSTATUS_MASK_REG = UART_1_backup.tx_mask;
 136:.\Generated_Source\PSoC4/UART_1_PM.c ****         #endif /*End UART_1_TX_ENABLED */
 137:.\Generated_Source\PSoC4/UART_1_PM.c **** 
 138:.\Generated_Source\PSoC4/UART_1_PM.c ****     #else /* CY_UDB_V1 */
 139:.\Generated_Source\PSoC4/UART_1_PM.c **** 
 140:.\Generated_Source\PSoC4/UART_1_PM.c ****         #if(UART_1_CONTROL_REG_REMOVED == 0u)
 141:.\Generated_Source\PSoC4/UART_1_PM.c ****             UART_1_CONTROL_REG = UART_1_backup.cr;
 142:.\Generated_Source\PSoC4/UART_1_PM.c ****         #endif /* End UART_1_CONTROL_REG_REMOVED */
 143:.\Generated_Source\PSoC4/UART_1_PM.c **** 
 144:.\Generated_Source\PSoC4/UART_1_PM.c ****     #endif  /* End CY_UDB_V0 */
 145:.\Generated_Source\PSoC4/UART_1_PM.c **** }
  61              		.loc 1 145 0
  62 0004 BD46     		mov	sp, r7
  63              		@ sp needed
  64 0006 80BD     		pop	{r7, pc}
  65              		.cfi_endproc
  66              	.LFE1:
  67              		.size	UART_1_RestoreConfig, .-UART_1_RestoreConfig
  68              		.section	.text.UART_1_Sleep,"ax",%progbits
  69              		.align	2
  70              		.global	UART_1_Sleep
  71              		.code	16
  72              		.thumb_func
  73              		.type	UART_1_Sleep, %function
  74              	UART_1_Sleep:
  75              	.LFB2:
 146:.\Generated_Source\PSoC4/UART_1_PM.c **** 
 147:.\Generated_Source\PSoC4/UART_1_PM.c **** 
 148:.\Generated_Source\PSoC4/UART_1_PM.c **** /*******************************************************************************
 149:.\Generated_Source\PSoC4/UART_1_PM.c **** * Function Name: UART_1_Sleep
 150:.\Generated_Source\PSoC4/UART_1_PM.c **** ********************************************************************************
 151:.\Generated_Source\PSoC4/UART_1_PM.c **** *
 152:.\Generated_Source\PSoC4/UART_1_PM.c **** * Summary:
 153:.\Generated_Source\PSoC4/UART_1_PM.c **** *  Stops and saves the user configuration. Should be called
ARM GAS  C:\Users\Samuel\AppData\Local\Temp\ccG3RDX7.s 			page 5


 154:.\Generated_Source\PSoC4/UART_1_PM.c **** *  just prior to entering sleep.
 155:.\Generated_Source\PSoC4/UART_1_PM.c **** *
 156:.\Generated_Source\PSoC4/UART_1_PM.c **** *
 157:.\Generated_Source\PSoC4/UART_1_PM.c **** * Parameters:
 158:.\Generated_Source\PSoC4/UART_1_PM.c **** *  None.
 159:.\Generated_Source\PSoC4/UART_1_PM.c **** *
 160:.\Generated_Source\PSoC4/UART_1_PM.c **** * Return:
 161:.\Generated_Source\PSoC4/UART_1_PM.c **** *  None.
 162:.\Generated_Source\PSoC4/UART_1_PM.c **** *
 163:.\Generated_Source\PSoC4/UART_1_PM.c **** * Global Variables:
 164:.\Generated_Source\PSoC4/UART_1_PM.c **** *  UART_1_backup - modified when non-retention registers are saved.
 165:.\Generated_Source\PSoC4/UART_1_PM.c **** *
 166:.\Generated_Source\PSoC4/UART_1_PM.c **** * Reentrant:
 167:.\Generated_Source\PSoC4/UART_1_PM.c **** *  No.
 168:.\Generated_Source\PSoC4/UART_1_PM.c **** *
 169:.\Generated_Source\PSoC4/UART_1_PM.c **** *******************************************************************************/
 170:.\Generated_Source\PSoC4/UART_1_PM.c **** void UART_1_Sleep(void)
 171:.\Generated_Source\PSoC4/UART_1_PM.c **** {
  76              		.loc 1 171 0
  77              		.cfi_startproc
  78 0000 80B5     		push	{r7, lr}
  79              		.cfi_def_cfa_offset 8
  80              		.cfi_offset 7, -8
  81              		.cfi_offset 14, -4
  82 0002 00AF     		add	r7, sp, #0
  83              		.cfi_def_cfa_register 7
 172:.\Generated_Source\PSoC4/UART_1_PM.c **** 
 173:.\Generated_Source\PSoC4/UART_1_PM.c ****     #if(UART_1_RX_ENABLED || UART_1_HD_ENABLED)
 174:.\Generated_Source\PSoC4/UART_1_PM.c ****         if((UART_1_RXSTATUS_ACTL_REG  & UART_1_INT_ENABLE) != 0u)
 175:.\Generated_Source\PSoC4/UART_1_PM.c ****         {
 176:.\Generated_Source\PSoC4/UART_1_PM.c ****             UART_1_backup.enableState = 1u;
 177:.\Generated_Source\PSoC4/UART_1_PM.c ****         }
 178:.\Generated_Source\PSoC4/UART_1_PM.c ****         else
 179:.\Generated_Source\PSoC4/UART_1_PM.c ****         {
 180:.\Generated_Source\PSoC4/UART_1_PM.c ****             UART_1_backup.enableState = 0u;
 181:.\Generated_Source\PSoC4/UART_1_PM.c ****         }
 182:.\Generated_Source\PSoC4/UART_1_PM.c ****     #else
 183:.\Generated_Source\PSoC4/UART_1_PM.c ****         if((UART_1_TXSTATUS_ACTL_REG  & UART_1_INT_ENABLE) !=0u)
  84              		.loc 1 183 0
  85 0004 094B     		ldr	r3, .L6
  86 0006 1B78     		ldrb	r3, [r3]
  87 0008 DBB2     		uxtb	r3, r3
  88 000a 1A1C     		mov	r2, r3
  89 000c 1023     		mov	r3, #16
  90 000e 1340     		and	r3, r2
  91 0010 03D0     		beq	.L4
 184:.\Generated_Source\PSoC4/UART_1_PM.c ****         {
 185:.\Generated_Source\PSoC4/UART_1_PM.c ****             UART_1_backup.enableState = 1u;
  92              		.loc 1 185 0
  93 0012 074B     		ldr	r3, .L6+4
  94 0014 0122     		mov	r2, #1
  95 0016 1A70     		strb	r2, [r3]
  96 0018 02E0     		b	.L5
  97              	.L4:
 186:.\Generated_Source\PSoC4/UART_1_PM.c ****         }
 187:.\Generated_Source\PSoC4/UART_1_PM.c ****         else
 188:.\Generated_Source\PSoC4/UART_1_PM.c ****         {
ARM GAS  C:\Users\Samuel\AppData\Local\Temp\ccG3RDX7.s 			page 6


 189:.\Generated_Source\PSoC4/UART_1_PM.c ****             UART_1_backup.enableState = 0u;
  98              		.loc 1 189 0
  99 001a 054B     		ldr	r3, .L6+4
 100 001c 0022     		mov	r2, #0
 101 001e 1A70     		strb	r2, [r3]
 102              	.L5:
 190:.\Generated_Source\PSoC4/UART_1_PM.c ****         }
 191:.\Generated_Source\PSoC4/UART_1_PM.c ****     #endif /* End UART_1_RX_ENABLED || UART_1_HD_ENABLED*/
 192:.\Generated_Source\PSoC4/UART_1_PM.c **** 
 193:.\Generated_Source\PSoC4/UART_1_PM.c ****     UART_1_Stop();
 103              		.loc 1 193 0
 104 0020 FFF7FEFF 		bl	UART_1_Stop
 194:.\Generated_Source\PSoC4/UART_1_PM.c ****     UART_1_SaveConfig();
 105              		.loc 1 194 0
 106 0024 FFF7FEFF 		bl	UART_1_SaveConfig
 195:.\Generated_Source\PSoC4/UART_1_PM.c **** }
 107              		.loc 1 195 0
 108 0028 BD46     		mov	sp, r7
 109              		@ sp needed
 110 002a 80BD     		pop	{r7, pc}
 111              	.L7:
 112              		.align	2
 113              	.L6:
 114 002c 90000F40 		.word	1074725008
 115 0030 00000000 		.word	UART_1_backup
 116              		.cfi_endproc
 117              	.LFE2:
 118              		.size	UART_1_Sleep, .-UART_1_Sleep
 119              		.section	.text.UART_1_Wakeup,"ax",%progbits
 120              		.align	2
 121              		.global	UART_1_Wakeup
 122              		.code	16
 123              		.thumb_func
 124              		.type	UART_1_Wakeup, %function
 125              	UART_1_Wakeup:
 126              	.LFB3:
 196:.\Generated_Source\PSoC4/UART_1_PM.c **** 
 197:.\Generated_Source\PSoC4/UART_1_PM.c **** 
 198:.\Generated_Source\PSoC4/UART_1_PM.c **** /*******************************************************************************
 199:.\Generated_Source\PSoC4/UART_1_PM.c **** * Function Name: UART_1_Wakeup
 200:.\Generated_Source\PSoC4/UART_1_PM.c **** ********************************************************************************
 201:.\Generated_Source\PSoC4/UART_1_PM.c **** *
 202:.\Generated_Source\PSoC4/UART_1_PM.c **** * Summary:
 203:.\Generated_Source\PSoC4/UART_1_PM.c **** *  Restores and enables the user configuration. Should be called
 204:.\Generated_Source\PSoC4/UART_1_PM.c **** *  just after awaking from sleep.
 205:.\Generated_Source\PSoC4/UART_1_PM.c **** *
 206:.\Generated_Source\PSoC4/UART_1_PM.c **** * Parameters:
 207:.\Generated_Source\PSoC4/UART_1_PM.c **** *  None.
 208:.\Generated_Source\PSoC4/UART_1_PM.c **** *
 209:.\Generated_Source\PSoC4/UART_1_PM.c **** * Return:
 210:.\Generated_Source\PSoC4/UART_1_PM.c **** *  None.
 211:.\Generated_Source\PSoC4/UART_1_PM.c **** *
 212:.\Generated_Source\PSoC4/UART_1_PM.c **** * Global Variables:
 213:.\Generated_Source\PSoC4/UART_1_PM.c **** *  UART_1_backup - used when non-retention registers are restored.
 214:.\Generated_Source\PSoC4/UART_1_PM.c **** *
 215:.\Generated_Source\PSoC4/UART_1_PM.c **** * Reentrant:
 216:.\Generated_Source\PSoC4/UART_1_PM.c **** *  No.
ARM GAS  C:\Users\Samuel\AppData\Local\Temp\ccG3RDX7.s 			page 7


 217:.\Generated_Source\PSoC4/UART_1_PM.c **** *
 218:.\Generated_Source\PSoC4/UART_1_PM.c **** *******************************************************************************/
 219:.\Generated_Source\PSoC4/UART_1_PM.c **** void UART_1_Wakeup(void)
 220:.\Generated_Source\PSoC4/UART_1_PM.c **** {
 127              		.loc 1 220 0
 128              		.cfi_startproc
 129 0000 80B5     		push	{r7, lr}
 130              		.cfi_def_cfa_offset 8
 131              		.cfi_offset 7, -8
 132              		.cfi_offset 14, -4
 133 0002 00AF     		add	r7, sp, #0
 134              		.cfi_def_cfa_register 7
 221:.\Generated_Source\PSoC4/UART_1_PM.c ****     UART_1_RestoreConfig();
 135              		.loc 1 221 0
 136 0004 FFF7FEFF 		bl	UART_1_RestoreConfig
 222:.\Generated_Source\PSoC4/UART_1_PM.c ****     #if( (UART_1_RX_ENABLED) || (UART_1_HD_ENABLED) )
 223:.\Generated_Source\PSoC4/UART_1_PM.c ****         UART_1_ClearRxBuffer();
 224:.\Generated_Source\PSoC4/UART_1_PM.c ****     #endif /* End (UART_1_RX_ENABLED) || (UART_1_HD_ENABLED) */
 225:.\Generated_Source\PSoC4/UART_1_PM.c ****     #if(UART_1_TX_ENABLED || UART_1_HD_ENABLED)
 226:.\Generated_Source\PSoC4/UART_1_PM.c ****         UART_1_ClearTxBuffer();
 137              		.loc 1 226 0
 138 0008 FFF7FEFF 		bl	UART_1_ClearTxBuffer
 227:.\Generated_Source\PSoC4/UART_1_PM.c ****     #endif /* End UART_1_TX_ENABLED || UART_1_HD_ENABLED */
 228:.\Generated_Source\PSoC4/UART_1_PM.c **** 
 229:.\Generated_Source\PSoC4/UART_1_PM.c ****     if(UART_1_backup.enableState != 0u)
 139              		.loc 1 229 0
 140 000c 034B     		ldr	r3, .L10
 141 000e 1B78     		ldrb	r3, [r3]
 142 0010 002B     		cmp	r3, #0
 143 0012 01D0     		beq	.L8
 230:.\Generated_Source\PSoC4/UART_1_PM.c ****     {
 231:.\Generated_Source\PSoC4/UART_1_PM.c ****         UART_1_Enable();
 144              		.loc 1 231 0
 145 0014 FFF7FEFF 		bl	UART_1_Enable
 146              	.L8:
 232:.\Generated_Source\PSoC4/UART_1_PM.c ****     }
 233:.\Generated_Source\PSoC4/UART_1_PM.c **** }
 147              		.loc 1 233 0
 148 0018 BD46     		mov	sp, r7
 149              		@ sp needed
 150 001a 80BD     		pop	{r7, pc}
 151              	.L11:
 152              		.align	2
 153              	.L10:
 154 001c 00000000 		.word	UART_1_backup
 155              		.cfi_endproc
 156              	.LFE3:
 157              		.size	UART_1_Wakeup, .-UART_1_Wakeup
 158              		.text
 159              	.Letext0:
 160              		.file 2 ".\\Generated_Source\\PSoC4\\cytypes.h"
 161              		.file 3 ".\\Generated_Source\\PSoC4\\UART_1.h"