ARM GAS  C:\Users\Samuel\AppData\Local\Temp\ccqqIa5p.s 			page 1


   1              		.cpu cortex-m0
   2              		.fpu softvfp
   3              		.eabi_attribute 20, 1
   4              		.eabi_attribute 21, 1
   5              		.eabi_attribute 23, 3
   6              		.eabi_attribute 24, 1
   7              		.eabi_attribute 25, 1
   8              		.eabi_attribute 26, 1
   9              		.eabi_attribute 30, 6
  10              		.eabi_attribute 34, 0
  11              		.eabi_attribute 18, 4
  12              		.code	16
  13              		.file	"Arduino_UART_SPI_UART.c"
  14              		.text
  15              	.Ltext0:
  16              		.cfi_sections	.debug_frame
  17              		.comm	Arduino_UART_rxBufferHead,4,4
  18              		.comm	Arduino_UART_rxBufferTail,4,4
  19              		.comm	Arduino_UART_rxBufferOverflow,1,1
  20              		.comm	Arduino_UART_rxBufferInternal,13,4
  21              		.section	.text.Arduino_UART_SpiUartReadRxData,"ax",%progbits
  22              		.align	2
  23              		.global	Arduino_UART_SpiUartReadRxData
  24              		.code	16
  25              		.thumb_func
  26              		.type	Arduino_UART_SpiUartReadRxData, %function
  27              	Arduino_UART_SpiUartReadRxData:
  28              	.LFB0:
  29              		.file 1 ".\\Generated_Source\\PSoC4\\Arduino_UART_SPI_UART.c"
   1:.\Generated_Source\PSoC4/Arduino_UART_SPI_UART.c **** /*******************************************************************************
   2:.\Generated_Source\PSoC4/Arduino_UART_SPI_UART.c **** * File Name: Arduino_UART_SPI_UART.c
   3:.\Generated_Source\PSoC4/Arduino_UART_SPI_UART.c **** * Version 2.0
   4:.\Generated_Source\PSoC4/Arduino_UART_SPI_UART.c **** *
   5:.\Generated_Source\PSoC4/Arduino_UART_SPI_UART.c **** * Description:
   6:.\Generated_Source\PSoC4/Arduino_UART_SPI_UART.c **** *  This file provides the source code to the API for the SCB Component in
   7:.\Generated_Source\PSoC4/Arduino_UART_SPI_UART.c **** *  SPI and UART modes.
   8:.\Generated_Source\PSoC4/Arduino_UART_SPI_UART.c **** *
   9:.\Generated_Source\PSoC4/Arduino_UART_SPI_UART.c **** * Note:
  10:.\Generated_Source\PSoC4/Arduino_UART_SPI_UART.c **** *
  11:.\Generated_Source\PSoC4/Arduino_UART_SPI_UART.c **** *******************************************************************************
  12:.\Generated_Source\PSoC4/Arduino_UART_SPI_UART.c **** * Copyright 2013-2014, Cypress Semiconductor Corporation.  All rights reserved.
  13:.\Generated_Source\PSoC4/Arduino_UART_SPI_UART.c **** * You may use this file only in accordance with the license, terms, conditions,
  14:.\Generated_Source\PSoC4/Arduino_UART_SPI_UART.c **** * disclaimers, and limitations in the end user license agreement accompanying
  15:.\Generated_Source\PSoC4/Arduino_UART_SPI_UART.c **** * the software package with which this file was provided.
  16:.\Generated_Source\PSoC4/Arduino_UART_SPI_UART.c **** *******************************************************************************/
  17:.\Generated_Source\PSoC4/Arduino_UART_SPI_UART.c **** 
  18:.\Generated_Source\PSoC4/Arduino_UART_SPI_UART.c **** #include "Arduino_UART_PVT.h"
  19:.\Generated_Source\PSoC4/Arduino_UART_SPI_UART.c **** #include "Arduino_UART_SPI_UART_PVT.h"
  20:.\Generated_Source\PSoC4/Arduino_UART_SPI_UART.c **** 
  21:.\Generated_Source\PSoC4/Arduino_UART_SPI_UART.c **** /***************************************
  22:.\Generated_Source\PSoC4/Arduino_UART_SPI_UART.c **** *        SPI/UART Private Vars
  23:.\Generated_Source\PSoC4/Arduino_UART_SPI_UART.c **** ***************************************/
  24:.\Generated_Source\PSoC4/Arduino_UART_SPI_UART.c **** 
  25:.\Generated_Source\PSoC4/Arduino_UART_SPI_UART.c **** #if(Arduino_UART_INTERNAL_RX_SW_BUFFER_CONST)
  26:.\Generated_Source\PSoC4/Arduino_UART_SPI_UART.c ****     volatile uint32 Arduino_UART_rxBufferHead;
  27:.\Generated_Source\PSoC4/Arduino_UART_SPI_UART.c ****     volatile uint32 Arduino_UART_rxBufferTail;
  28:.\Generated_Source\PSoC4/Arduino_UART_SPI_UART.c ****     volatile uint8  Arduino_UART_rxBufferOverflow;
ARM GAS  C:\Users\Samuel\AppData\Local\Temp\ccqqIa5p.s 			page 2


  29:.\Generated_Source\PSoC4/Arduino_UART_SPI_UART.c **** #endif /* (Arduino_UART_INTERNAL_RX_SW_BUFFER_CONST) */
  30:.\Generated_Source\PSoC4/Arduino_UART_SPI_UART.c **** 
  31:.\Generated_Source\PSoC4/Arduino_UART_SPI_UART.c **** #if(Arduino_UART_INTERNAL_TX_SW_BUFFER_CONST)
  32:.\Generated_Source\PSoC4/Arduino_UART_SPI_UART.c ****     volatile uint32 Arduino_UART_txBufferHead;
  33:.\Generated_Source\PSoC4/Arduino_UART_SPI_UART.c ****     volatile uint32 Arduino_UART_txBufferTail;
  34:.\Generated_Source\PSoC4/Arduino_UART_SPI_UART.c **** #endif /* (Arduino_UART_INTERNAL_TX_SW_BUFFER_CONST) */
  35:.\Generated_Source\PSoC4/Arduino_UART_SPI_UART.c **** 
  36:.\Generated_Source\PSoC4/Arduino_UART_SPI_UART.c **** #if(Arduino_UART_INTERNAL_RX_SW_BUFFER)
  37:.\Generated_Source\PSoC4/Arduino_UART_SPI_UART.c ****     /* Add one element to the buffer to receive full packet. One byte in receive buffer is always e
  38:.\Generated_Source\PSoC4/Arduino_UART_SPI_UART.c ****     volatile uint8 Arduino_UART_rxBufferInternal[Arduino_UART_RX_BUFFER_SIZE];
  39:.\Generated_Source\PSoC4/Arduino_UART_SPI_UART.c **** #endif /* (Arduino_UART_INTERNAL_RX_SW_BUFFER) */
  40:.\Generated_Source\PSoC4/Arduino_UART_SPI_UART.c **** 
  41:.\Generated_Source\PSoC4/Arduino_UART_SPI_UART.c **** #if(Arduino_UART_INTERNAL_TX_SW_BUFFER)
  42:.\Generated_Source\PSoC4/Arduino_UART_SPI_UART.c ****     volatile uint8 Arduino_UART_txBufferInternal[Arduino_UART_TX_BUFFER_SIZE];
  43:.\Generated_Source\PSoC4/Arduino_UART_SPI_UART.c **** #endif /* (Arduino_UART_INTERNAL_TX_SW_BUFFER) */
  44:.\Generated_Source\PSoC4/Arduino_UART_SPI_UART.c **** 
  45:.\Generated_Source\PSoC4/Arduino_UART_SPI_UART.c **** 
  46:.\Generated_Source\PSoC4/Arduino_UART_SPI_UART.c **** #if(Arduino_UART_RX_DIRECTION)
  47:.\Generated_Source\PSoC4/Arduino_UART_SPI_UART.c **** 
  48:.\Generated_Source\PSoC4/Arduino_UART_SPI_UART.c ****     /*******************************************************************************
  49:.\Generated_Source\PSoC4/Arduino_UART_SPI_UART.c ****     * Function Name: Arduino_UART_SpiUartReadRxData
  50:.\Generated_Source\PSoC4/Arduino_UART_SPI_UART.c ****     ********************************************************************************
  51:.\Generated_Source\PSoC4/Arduino_UART_SPI_UART.c ****     *
  52:.\Generated_Source\PSoC4/Arduino_UART_SPI_UART.c ****     * Summary:
  53:.\Generated_Source\PSoC4/Arduino_UART_SPI_UART.c ****     *  Retrieves the next data element from the receive buffer.
  54:.\Generated_Source\PSoC4/Arduino_UART_SPI_UART.c ****     *   - RX software buffer is disabled: Returns data element retrieved from
  55:.\Generated_Source\PSoC4/Arduino_UART_SPI_UART.c ****     *     RX FIFO. Undefined data will be returned if the RX FIFO is empty.
  56:.\Generated_Source\PSoC4/Arduino_UART_SPI_UART.c ****     *   - RX software buffer is enabled: Returns data element from the software
  57:.\Generated_Source\PSoC4/Arduino_UART_SPI_UART.c ****     *     receive buffer. Zero value is returned if the software receive buffer
  58:.\Generated_Source\PSoC4/Arduino_UART_SPI_UART.c ****     *     is empty.
  59:.\Generated_Source\PSoC4/Arduino_UART_SPI_UART.c ****     *
  60:.\Generated_Source\PSoC4/Arduino_UART_SPI_UART.c ****     * Parameters:
  61:.\Generated_Source\PSoC4/Arduino_UART_SPI_UART.c ****     *  None
  62:.\Generated_Source\PSoC4/Arduino_UART_SPI_UART.c ****     *
  63:.\Generated_Source\PSoC4/Arduino_UART_SPI_UART.c ****     * Return:
  64:.\Generated_Source\PSoC4/Arduino_UART_SPI_UART.c ****     *  Next data element from the receive buffer.
  65:.\Generated_Source\PSoC4/Arduino_UART_SPI_UART.c ****     *
  66:.\Generated_Source\PSoC4/Arduino_UART_SPI_UART.c ****     * Global Variables:
  67:.\Generated_Source\PSoC4/Arduino_UART_SPI_UART.c ****     *  Look into Arduino_UART_SpiInit for description.
  68:.\Generated_Source\PSoC4/Arduino_UART_SPI_UART.c ****     *
  69:.\Generated_Source\PSoC4/Arduino_UART_SPI_UART.c ****     *******************************************************************************/
  70:.\Generated_Source\PSoC4/Arduino_UART_SPI_UART.c ****     uint32 Arduino_UART_SpiUartReadRxData(void)
  71:.\Generated_Source\PSoC4/Arduino_UART_SPI_UART.c ****     {
  30              		.loc 1 71 0
  31              		.cfi_startproc
  32 0000 80B5     		push	{r7, lr}
  33              		.cfi_def_cfa_offset 8
  34              		.cfi_offset 7, -8
  35              		.cfi_offset 14, -4
  36 0002 82B0     		sub	sp, sp, #8
  37              		.cfi_def_cfa_offset 16
  38 0004 00AF     		add	r7, sp, #0
  39              		.cfi_def_cfa_register 7
  72:.\Generated_Source\PSoC4/Arduino_UART_SPI_UART.c ****         uint32 rxData = 0u;
  40              		.loc 1 72 0
  41 0006 0023     		mov	r3, #0
  42 0008 7B60     		str	r3, [r7, #4]
ARM GAS  C:\Users\Samuel\AppData\Local\Temp\ccqqIa5p.s 			page 3


  73:.\Generated_Source\PSoC4/Arduino_UART_SPI_UART.c **** 
  74:.\Generated_Source\PSoC4/Arduino_UART_SPI_UART.c ****         #if(Arduino_UART_INTERNAL_RX_SW_BUFFER_CONST)
  75:.\Generated_Source\PSoC4/Arduino_UART_SPI_UART.c ****             uint32 locTail;
  76:.\Generated_Source\PSoC4/Arduino_UART_SPI_UART.c ****         #endif /* (Arduino_UART_INTERNAL_RX_SW_BUFFER_CONST) */
  77:.\Generated_Source\PSoC4/Arduino_UART_SPI_UART.c **** 
  78:.\Generated_Source\PSoC4/Arduino_UART_SPI_UART.c ****         #if(Arduino_UART_CHECK_RX_SW_BUFFER)
  79:.\Generated_Source\PSoC4/Arduino_UART_SPI_UART.c ****         {
  80:.\Generated_Source\PSoC4/Arduino_UART_SPI_UART.c ****             if(Arduino_UART_rxBufferHead != Arduino_UART_rxBufferTail)
  43              		.loc 1 80 0
  44 000a 0E4B     		ldr	r3, .L5
  45 000c 1A68     		ldr	r2, [r3]
  46 000e 0E4B     		ldr	r3, .L5+4
  47 0010 1B68     		ldr	r3, [r3]
  48 0012 9A42     		cmp	r2, r3
  49 0014 11D0     		beq	.L2
  81:.\Generated_Source\PSoC4/Arduino_UART_SPI_UART.c ****             {
  82:.\Generated_Source\PSoC4/Arduino_UART_SPI_UART.c ****                 /* There is data in RX software buffer */
  83:.\Generated_Source\PSoC4/Arduino_UART_SPI_UART.c **** 
  84:.\Generated_Source\PSoC4/Arduino_UART_SPI_UART.c ****                 /* Calculate index to read from */
  85:.\Generated_Source\PSoC4/Arduino_UART_SPI_UART.c ****                 locTail = (Arduino_UART_rxBufferTail + 1u);
  50              		.loc 1 85 0
  51 0016 0C4B     		ldr	r3, .L5+4
  52 0018 1B68     		ldr	r3, [r3]
  53 001a 0133     		add	r3, r3, #1
  54 001c 3B60     		str	r3, [r7]
  86:.\Generated_Source\PSoC4/Arduino_UART_SPI_UART.c **** 
  87:.\Generated_Source\PSoC4/Arduino_UART_SPI_UART.c ****                 if(Arduino_UART_RX_BUFFER_SIZE == locTail)
  55              		.loc 1 87 0
  56 001e 3B68     		ldr	r3, [r7]
  57 0020 0D2B     		cmp	r3, #13
  58 0022 01D1     		bne	.L3
  88:.\Generated_Source\PSoC4/Arduino_UART_SPI_UART.c ****                 {
  89:.\Generated_Source\PSoC4/Arduino_UART_SPI_UART.c ****                     locTail = 0u;
  59              		.loc 1 89 0
  60 0024 0023     		mov	r3, #0
  61 0026 3B60     		str	r3, [r7]
  62              	.L3:
  90:.\Generated_Source\PSoC4/Arduino_UART_SPI_UART.c ****                 }
  91:.\Generated_Source\PSoC4/Arduino_UART_SPI_UART.c **** 
  92:.\Generated_Source\PSoC4/Arduino_UART_SPI_UART.c ****                 /* Get data from RX software buffer */
  93:.\Generated_Source\PSoC4/Arduino_UART_SPI_UART.c ****                 rxData = Arduino_UART_GetWordFromRxBuffer(locTail);
  63              		.loc 1 93 0
  64 0028 084A     		ldr	r2, .L5+8
  65 002a 3B68     		ldr	r3, [r7]
  66 002c D318     		add	r3, r2, r3
  67 002e 1B78     		ldrb	r3, [r3]
  68 0030 DBB2     		uxtb	r3, r3
  69 0032 7B60     		str	r3, [r7, #4]
  94:.\Generated_Source\PSoC4/Arduino_UART_SPI_UART.c **** 
  95:.\Generated_Source\PSoC4/Arduino_UART_SPI_UART.c ****                 /* Change index in the buffer */
  96:.\Generated_Source\PSoC4/Arduino_UART_SPI_UART.c ****                 Arduino_UART_rxBufferTail = locTail;
  70              		.loc 1 96 0
  71 0034 044B     		ldr	r3, .L5+4
  72 0036 3A68     		ldr	r2, [r7]
  73 0038 1A60     		str	r2, [r3]
  74              	.L2:
  97:.\Generated_Source\PSoC4/Arduino_UART_SPI_UART.c ****             }
ARM GAS  C:\Users\Samuel\AppData\Local\Temp\ccqqIa5p.s 			page 4


  98:.\Generated_Source\PSoC4/Arduino_UART_SPI_UART.c ****         }
  99:.\Generated_Source\PSoC4/Arduino_UART_SPI_UART.c ****         #else
 100:.\Generated_Source\PSoC4/Arduino_UART_SPI_UART.c ****         {
 101:.\Generated_Source\PSoC4/Arduino_UART_SPI_UART.c ****             rxData = Arduino_UART_RX_FIFO_RD_REG; /* Read data from RX FIFO */
 102:.\Generated_Source\PSoC4/Arduino_UART_SPI_UART.c ****         }
 103:.\Generated_Source\PSoC4/Arduino_UART_SPI_UART.c ****         #endif
 104:.\Generated_Source\PSoC4/Arduino_UART_SPI_UART.c **** 
 105:.\Generated_Source\PSoC4/Arduino_UART_SPI_UART.c ****         return(rxData);
  75              		.loc 1 105 0
  76 003a 7B68     		ldr	r3, [r7, #4]
 106:.\Generated_Source\PSoC4/Arduino_UART_SPI_UART.c ****     }
  77              		.loc 1 106 0
  78 003c 181C     		mov	r0, r3
  79 003e BD46     		mov	sp, r7
  80 0040 02B0     		add	sp, sp, #8
  81              		@ sp needed
  82 0042 80BD     		pop	{r7, pc}
  83              	.L6:
  84              		.align	2
  85              	.L5:
  86 0044 00000000 		.word	Arduino_UART_rxBufferHead
  87 0048 00000000 		.word	Arduino_UART_rxBufferTail
  88 004c 00000000 		.word	Arduino_UART_rxBufferInternal
  89              		.cfi_endproc
  90              	.LFE0:
  91              		.size	Arduino_UART_SpiUartReadRxData, .-Arduino_UART_SpiUartReadRxData
  92              		.section	.text.Arduino_UART_SpiUartGetRxBufferSize,"ax",%progbits
  93              		.align	2
  94              		.global	Arduino_UART_SpiUartGetRxBufferSize
  95              		.code	16
  96              		.thumb_func
  97              		.type	Arduino_UART_SpiUartGetRxBufferSize, %function
  98              	Arduino_UART_SpiUartGetRxBufferSize:
  99              	.LFB1:
 107:.\Generated_Source\PSoC4/Arduino_UART_SPI_UART.c **** 
 108:.\Generated_Source\PSoC4/Arduino_UART_SPI_UART.c **** 
 109:.\Generated_Source\PSoC4/Arduino_UART_SPI_UART.c ****     /*******************************************************************************
 110:.\Generated_Source\PSoC4/Arduino_UART_SPI_UART.c ****     * Function Name: Arduino_UART_SpiUartGetRxBufferSize
 111:.\Generated_Source\PSoC4/Arduino_UART_SPI_UART.c ****     ********************************************************************************
 112:.\Generated_Source\PSoC4/Arduino_UART_SPI_UART.c ****     *
 113:.\Generated_Source\PSoC4/Arduino_UART_SPI_UART.c ****     * Summary:
 114:.\Generated_Source\PSoC4/Arduino_UART_SPI_UART.c ****     *  Returns the number of received data elements in the receive buffer.
 115:.\Generated_Source\PSoC4/Arduino_UART_SPI_UART.c ****     *   - RX software buffer disabled: returns the number of used entries in
 116:.\Generated_Source\PSoC4/Arduino_UART_SPI_UART.c ****     *     RX FIFO.
 117:.\Generated_Source\PSoC4/Arduino_UART_SPI_UART.c ****     *   - RX software buffer enabled: returns the number of elements which were
 118:.\Generated_Source\PSoC4/Arduino_UART_SPI_UART.c ****     *     placed in the receive buffer. This does not include the hardware RX FIFO.
 119:.\Generated_Source\PSoC4/Arduino_UART_SPI_UART.c ****     *
 120:.\Generated_Source\PSoC4/Arduino_UART_SPI_UART.c ****     * Parameters:
 121:.\Generated_Source\PSoC4/Arduino_UART_SPI_UART.c ****     *  None
 122:.\Generated_Source\PSoC4/Arduino_UART_SPI_UART.c ****     *
 123:.\Generated_Source\PSoC4/Arduino_UART_SPI_UART.c ****     * Return:
 124:.\Generated_Source\PSoC4/Arduino_UART_SPI_UART.c ****     *  Number of received data elements
 125:.\Generated_Source\PSoC4/Arduino_UART_SPI_UART.c ****     *
 126:.\Generated_Source\PSoC4/Arduino_UART_SPI_UART.c ****     *******************************************************************************/
 127:.\Generated_Source\PSoC4/Arduino_UART_SPI_UART.c ****     uint32 Arduino_UART_SpiUartGetRxBufferSize(void)
 128:.\Generated_Source\PSoC4/Arduino_UART_SPI_UART.c ****     {
 100              		.loc 1 128 0
ARM GAS  C:\Users\Samuel\AppData\Local\Temp\ccqqIa5p.s 			page 5


 101              		.cfi_startproc
 102 0000 80B5     		push	{r7, lr}
 103              		.cfi_def_cfa_offset 8
 104              		.cfi_offset 7, -8
 105              		.cfi_offset 14, -4
 106 0002 82B0     		sub	sp, sp, #8
 107              		.cfi_def_cfa_offset 16
 108 0004 00AF     		add	r7, sp, #0
 109              		.cfi_def_cfa_register 7
 129:.\Generated_Source\PSoC4/Arduino_UART_SPI_UART.c ****         uint32 size;
 130:.\Generated_Source\PSoC4/Arduino_UART_SPI_UART.c ****         #if(Arduino_UART_INTERNAL_RX_SW_BUFFER_CONST)
 131:.\Generated_Source\PSoC4/Arduino_UART_SPI_UART.c ****             uint32 locHead;
 132:.\Generated_Source\PSoC4/Arduino_UART_SPI_UART.c ****         #endif /* (Arduino_UART_INTERNAL_RX_SW_BUFFER_CONST) */
 133:.\Generated_Source\PSoC4/Arduino_UART_SPI_UART.c **** 
 134:.\Generated_Source\PSoC4/Arduino_UART_SPI_UART.c ****         #if(Arduino_UART_CHECK_RX_SW_BUFFER)
 135:.\Generated_Source\PSoC4/Arduino_UART_SPI_UART.c ****         {
 136:.\Generated_Source\PSoC4/Arduino_UART_SPI_UART.c ****             locHead = Arduino_UART_rxBufferHead;
 110              		.loc 1 136 0
 111 0006 0C4B     		ldr	r3, .L11
 112 0008 1B68     		ldr	r3, [r3]
 113 000a 3B60     		str	r3, [r7]
 137:.\Generated_Source\PSoC4/Arduino_UART_SPI_UART.c **** 
 138:.\Generated_Source\PSoC4/Arduino_UART_SPI_UART.c ****             if(locHead >= Arduino_UART_rxBufferTail)
 114              		.loc 1 138 0
 115 000c 0B4B     		ldr	r3, .L11+4
 116 000e 1B68     		ldr	r3, [r3]
 117 0010 3A68     		ldr	r2, [r7]
 118 0012 9A42     		cmp	r2, r3
 119 0014 05D3     		bcc	.L8
 139:.\Generated_Source\PSoC4/Arduino_UART_SPI_UART.c ****             {
 140:.\Generated_Source\PSoC4/Arduino_UART_SPI_UART.c ****                 size = (locHead - Arduino_UART_rxBufferTail);
 120              		.loc 1 140 0
 121 0016 094B     		ldr	r3, .L11+4
 122 0018 1B68     		ldr	r3, [r3]
 123 001a 3A68     		ldr	r2, [r7]
 124 001c D31A     		sub	r3, r2, r3
 125 001e 7B60     		str	r3, [r7, #4]
 126 0020 05E0     		b	.L9
 127              	.L8:
 141:.\Generated_Source\PSoC4/Arduino_UART_SPI_UART.c ****             }
 142:.\Generated_Source\PSoC4/Arduino_UART_SPI_UART.c ****             else
 143:.\Generated_Source\PSoC4/Arduino_UART_SPI_UART.c ****             {
 144:.\Generated_Source\PSoC4/Arduino_UART_SPI_UART.c ****                 size = (locHead + (Arduino_UART_RX_BUFFER_SIZE - Arduino_UART_rxBufferTail));
 128              		.loc 1 144 0
 129 0022 064B     		ldr	r3, .L11+4
 130 0024 1B68     		ldr	r3, [r3]
 131 0026 3A68     		ldr	r2, [r7]
 132 0028 D31A     		sub	r3, r2, r3
 133 002a 0D33     		add	r3, r3, #13
 134 002c 7B60     		str	r3, [r7, #4]
 135              	.L9:
 145:.\Generated_Source\PSoC4/Arduino_UART_SPI_UART.c ****             }
 146:.\Generated_Source\PSoC4/Arduino_UART_SPI_UART.c ****         }
 147:.\Generated_Source\PSoC4/Arduino_UART_SPI_UART.c ****         #else
 148:.\Generated_Source\PSoC4/Arduino_UART_SPI_UART.c ****         {
 149:.\Generated_Source\PSoC4/Arduino_UART_SPI_UART.c ****             size = Arduino_UART_GET_RX_FIFO_ENTRIES;
 150:.\Generated_Source\PSoC4/Arduino_UART_SPI_UART.c ****         }
ARM GAS  C:\Users\Samuel\AppData\Local\Temp\ccqqIa5p.s 			page 6


 151:.\Generated_Source\PSoC4/Arduino_UART_SPI_UART.c ****         #endif
 152:.\Generated_Source\PSoC4/Arduino_UART_SPI_UART.c **** 
 153:.\Generated_Source\PSoC4/Arduino_UART_SPI_UART.c ****         return(size);
 136              		.loc 1 153 0
 137 002e 7B68     		ldr	r3, [r7, #4]
 154:.\Generated_Source\PSoC4/Arduino_UART_SPI_UART.c ****     }
 138              		.loc 1 154 0
 139 0030 181C     		mov	r0, r3
 140 0032 BD46     		mov	sp, r7
 141 0034 02B0     		add	sp, sp, #8
 142              		@ sp needed
 143 0036 80BD     		pop	{r7, pc}
 144              	.L12:
 145              		.align	2
 146              	.L11:
 147 0038 00000000 		.word	Arduino_UART_rxBufferHead
 148 003c 00000000 		.word	Arduino_UART_rxBufferTail
 149              		.cfi_endproc
 150              	.LFE1:
 151              		.size	Arduino_UART_SpiUartGetRxBufferSize, .-Arduino_UART_SpiUartGetRxBufferSize
 152              		.section	.text.Arduino_UART_SpiUartClearRxBuffer,"ax",%progbits
 153              		.align	2
 154              		.global	Arduino_UART_SpiUartClearRxBuffer
 155              		.code	16
 156              		.thumb_func
 157              		.type	Arduino_UART_SpiUartClearRxBuffer, %function
 158              	Arduino_UART_SpiUartClearRxBuffer:
 159              	.LFB2:
 155:.\Generated_Source\PSoC4/Arduino_UART_SPI_UART.c **** 
 156:.\Generated_Source\PSoC4/Arduino_UART_SPI_UART.c **** 
 157:.\Generated_Source\PSoC4/Arduino_UART_SPI_UART.c ****     /*******************************************************************************
 158:.\Generated_Source\PSoC4/Arduino_UART_SPI_UART.c ****     * Function Name: Arduino_UART_SpiUartClearRxBuffer
 159:.\Generated_Source\PSoC4/Arduino_UART_SPI_UART.c ****     ********************************************************************************
 160:.\Generated_Source\PSoC4/Arduino_UART_SPI_UART.c ****     *
 161:.\Generated_Source\PSoC4/Arduino_UART_SPI_UART.c ****     * Summary:
 162:.\Generated_Source\PSoC4/Arduino_UART_SPI_UART.c ****     *  Clears the receive buffer and RX FIFO.
 163:.\Generated_Source\PSoC4/Arduino_UART_SPI_UART.c ****     *
 164:.\Generated_Source\PSoC4/Arduino_UART_SPI_UART.c ****     * Parameters:
 165:.\Generated_Source\PSoC4/Arduino_UART_SPI_UART.c ****     *  None
 166:.\Generated_Source\PSoC4/Arduino_UART_SPI_UART.c ****     *
 167:.\Generated_Source\PSoC4/Arduino_UART_SPI_UART.c ****     * Return:
 168:.\Generated_Source\PSoC4/Arduino_UART_SPI_UART.c ****     *  None
 169:.\Generated_Source\PSoC4/Arduino_UART_SPI_UART.c ****     *
 170:.\Generated_Source\PSoC4/Arduino_UART_SPI_UART.c ****     *******************************************************************************/
 171:.\Generated_Source\PSoC4/Arduino_UART_SPI_UART.c ****     void Arduino_UART_SpiUartClearRxBuffer(void)
 172:.\Generated_Source\PSoC4/Arduino_UART_SPI_UART.c ****     {
 160              		.loc 1 172 0
 161              		.cfi_startproc
 162 0000 80B5     		push	{r7, lr}
 163              		.cfi_def_cfa_offset 8
 164              		.cfi_offset 7, -8
 165              		.cfi_offset 14, -4
 166 0002 82B0     		sub	sp, sp, #8
 167              		.cfi_def_cfa_offset 16
 168 0004 00AF     		add	r7, sp, #0
 169              		.cfi_def_cfa_register 7
 173:.\Generated_Source\PSoC4/Arduino_UART_SPI_UART.c ****         #if(Arduino_UART_INTERNAL_RX_SW_BUFFER_CONST)
ARM GAS  C:\Users\Samuel\AppData\Local\Temp\ccqqIa5p.s 			page 7


 174:.\Generated_Source\PSoC4/Arduino_UART_SPI_UART.c ****             uint32 intSourceMask;
 175:.\Generated_Source\PSoC4/Arduino_UART_SPI_UART.c ****         #endif /* (Arduino_UART_INTERNAL_RX_SW_BUFFER_CONST) */
 176:.\Generated_Source\PSoC4/Arduino_UART_SPI_UART.c **** 
 177:.\Generated_Source\PSoC4/Arduino_UART_SPI_UART.c ****         #if(Arduino_UART_CHECK_RX_SW_BUFFER)
 178:.\Generated_Source\PSoC4/Arduino_UART_SPI_UART.c ****         {
 179:.\Generated_Source\PSoC4/Arduino_UART_SPI_UART.c ****             intSourceMask = Arduino_UART_SpiUartDisableIntRx();
 170              		.loc 1 179 0
 171 0006 FFF7FEFF 		bl	Arduino_UART_SpiUartDisableIntRx
 172 000a 031C     		mov	r3, r0
 173 000c 7B60     		str	r3, [r7, #4]
 180:.\Generated_Source\PSoC4/Arduino_UART_SPI_UART.c **** 
 181:.\Generated_Source\PSoC4/Arduino_UART_SPI_UART.c ****             Arduino_UART_CLEAR_RX_FIFO;
 174              		.loc 1 181 0
 175 000e 0E4B     		ldr	r3, .L14
 176 0010 0D4A     		ldr	r2, .L14
 177 0012 1268     		ldr	r2, [r2]
 178 0014 8021     		mov	r1, #128
 179 0016 4902     		lsl	r1, r1, #9
 180 0018 0A43     		orr	r2, r1
 181 001a 1A60     		str	r2, [r3]
 182 001c 0A4B     		ldr	r3, .L14
 183 001e 0A4A     		ldr	r2, .L14
 184 0020 1168     		ldr	r1, [r2]
 185 0022 0A4A     		ldr	r2, .L14+4
 186 0024 0A40     		and	r2, r1
 187 0026 1A60     		str	r2, [r3]
 182:.\Generated_Source\PSoC4/Arduino_UART_SPI_UART.c **** 
 183:.\Generated_Source\PSoC4/Arduino_UART_SPI_UART.c ****             /* Flush RX software buffer */
 184:.\Generated_Source\PSoC4/Arduino_UART_SPI_UART.c ****             Arduino_UART_rxBufferHead     = Arduino_UART_rxBufferTail;
 188              		.loc 1 184 0
 189 0028 094B     		ldr	r3, .L14+8
 190 002a 1A68     		ldr	r2, [r3]
 191 002c 094B     		ldr	r3, .L14+12
 192 002e 1A60     		str	r2, [r3]
 185:.\Generated_Source\PSoC4/Arduino_UART_SPI_UART.c ****             Arduino_UART_rxBufferOverflow = 0u;
 193              		.loc 1 185 0
 194 0030 094B     		ldr	r3, .L14+16
 195 0032 0022     		mov	r2, #0
 196 0034 1A70     		strb	r2, [r3]
 186:.\Generated_Source\PSoC4/Arduino_UART_SPI_UART.c **** 
 187:.\Generated_Source\PSoC4/Arduino_UART_SPI_UART.c ****             /* End RX transfer */
 188:.\Generated_Source\PSoC4/Arduino_UART_SPI_UART.c ****             Arduino_UART_ClearRxInterruptSource(Arduino_UART_INTR_RX_ALL);
 197              		.loc 1 188 0
 198 0036 094B     		ldr	r3, .L14+20
 199 0038 094A     		ldr	r2, .L14+24
 200 003a 1A60     		str	r2, [r3]
 189:.\Generated_Source\PSoC4/Arduino_UART_SPI_UART.c **** 
 190:.\Generated_Source\PSoC4/Arduino_UART_SPI_UART.c ****             Arduino_UART_SpiUartEnableIntRx(intSourceMask);
 201              		.loc 1 190 0
 202 003c 094B     		ldr	r3, .L14+28
 203 003e 7A68     		ldr	r2, [r7, #4]
 204 0040 1A60     		str	r2, [r3]
 191:.\Generated_Source\PSoC4/Arduino_UART_SPI_UART.c ****         }
 192:.\Generated_Source\PSoC4/Arduino_UART_SPI_UART.c ****         #else
 193:.\Generated_Source\PSoC4/Arduino_UART_SPI_UART.c ****         {
 194:.\Generated_Source\PSoC4/Arduino_UART_SPI_UART.c ****             Arduino_UART_CLEAR_RX_FIFO;
 195:.\Generated_Source\PSoC4/Arduino_UART_SPI_UART.c ****         }
ARM GAS  C:\Users\Samuel\AppData\Local\Temp\ccqqIa5p.s 			page 8


 196:.\Generated_Source\PSoC4/Arduino_UART_SPI_UART.c ****         #endif
 197:.\Generated_Source\PSoC4/Arduino_UART_SPI_UART.c ****     }
 205              		.loc 1 197 0
 206 0042 BD46     		mov	sp, r7
 207 0044 02B0     		add	sp, sp, #8
 208              		@ sp needed
 209 0046 80BD     		pop	{r7, pc}
 210              	.L15:
 211              		.align	2
 212              	.L14:
 213 0048 04030740 		.word	1074201348
 214 004c FFFFFEFF 		.word	-65537
 215 0050 00000000 		.word	Arduino_UART_rxBufferTail
 216 0054 00000000 		.word	Arduino_UART_rxBufferHead
 217 0058 00000000 		.word	Arduino_UART_rxBufferOverflow
 218 005c C00F0740 		.word	1074204608
 219 0060 ED0F0000 		.word	4077
 220 0064 C80F0740 		.word	1074204616
 221              		.cfi_endproc
 222              	.LFE2:
 223              		.size	Arduino_UART_SpiUartClearRxBuffer, .-Arduino_UART_SpiUartClearRxBuffer
 224              		.section	.text.Arduino_UART_SpiUartWriteTxData,"ax",%progbits
 225              		.align	2
 226              		.global	Arduino_UART_SpiUartWriteTxData
 227              		.code	16
 228              		.thumb_func
 229              		.type	Arduino_UART_SpiUartWriteTxData, %function
 230              	Arduino_UART_SpiUartWriteTxData:
 231              	.LFB3:
 198:.\Generated_Source\PSoC4/Arduino_UART_SPI_UART.c **** 
 199:.\Generated_Source\PSoC4/Arduino_UART_SPI_UART.c **** #endif /* (Arduino_UART_RX_DIRECTION) */
 200:.\Generated_Source\PSoC4/Arduino_UART_SPI_UART.c **** 
 201:.\Generated_Source\PSoC4/Arduino_UART_SPI_UART.c **** 
 202:.\Generated_Source\PSoC4/Arduino_UART_SPI_UART.c **** #if(Arduino_UART_TX_DIRECTION)
 203:.\Generated_Source\PSoC4/Arduino_UART_SPI_UART.c **** 
 204:.\Generated_Source\PSoC4/Arduino_UART_SPI_UART.c ****     /*******************************************************************************
 205:.\Generated_Source\PSoC4/Arduino_UART_SPI_UART.c ****     * Function Name: Arduino_UART_SpiUartWriteTxData
 206:.\Generated_Source\PSoC4/Arduino_UART_SPI_UART.c ****     ********************************************************************************
 207:.\Generated_Source\PSoC4/Arduino_UART_SPI_UART.c ****     *
 208:.\Generated_Source\PSoC4/Arduino_UART_SPI_UART.c ****     * Summary:
 209:.\Generated_Source\PSoC4/Arduino_UART_SPI_UART.c ****     *  Places a data entry into the transmit buffer to be sent at the next available
 210:.\Generated_Source\PSoC4/Arduino_UART_SPI_UART.c ****     *  bus time.
 211:.\Generated_Source\PSoC4/Arduino_UART_SPI_UART.c ****     *  This function is blocking and waits until there is space available to put the
 212:.\Generated_Source\PSoC4/Arduino_UART_SPI_UART.c ****     *  requested data in the transmit buffer.
 213:.\Generated_Source\PSoC4/Arduino_UART_SPI_UART.c ****     *
 214:.\Generated_Source\PSoC4/Arduino_UART_SPI_UART.c ****     * Parameters:
 215:.\Generated_Source\PSoC4/Arduino_UART_SPI_UART.c ****     *  txDataByte: the data to be transmitted.
 216:.\Generated_Source\PSoC4/Arduino_UART_SPI_UART.c ****     *
 217:.\Generated_Source\PSoC4/Arduino_UART_SPI_UART.c ****     * Return:
 218:.\Generated_Source\PSoC4/Arduino_UART_SPI_UART.c ****     *  None
 219:.\Generated_Source\PSoC4/Arduino_UART_SPI_UART.c ****     *
 220:.\Generated_Source\PSoC4/Arduino_UART_SPI_UART.c ****     *******************************************************************************/
 221:.\Generated_Source\PSoC4/Arduino_UART_SPI_UART.c ****     void Arduino_UART_SpiUartWriteTxData(uint32 txData)
 222:.\Generated_Source\PSoC4/Arduino_UART_SPI_UART.c ****     {
 232              		.loc 1 222 0
 233              		.cfi_startproc
 234 0000 80B5     		push	{r7, lr}
ARM GAS  C:\Users\Samuel\AppData\Local\Temp\ccqqIa5p.s 			page 9


 235              		.cfi_def_cfa_offset 8
 236              		.cfi_offset 7, -8
 237              		.cfi_offset 14, -4
 238 0002 82B0     		sub	sp, sp, #8
 239              		.cfi_def_cfa_offset 16
 240 0004 00AF     		add	r7, sp, #0
 241              		.cfi_def_cfa_register 7
 242 0006 7860     		str	r0, [r7, #4]
 223:.\Generated_Source\PSoC4/Arduino_UART_SPI_UART.c ****         #if(Arduino_UART_INTERNAL_TX_SW_BUFFER_CONST)
 224:.\Generated_Source\PSoC4/Arduino_UART_SPI_UART.c ****             uint32 locHead;
 225:.\Generated_Source\PSoC4/Arduino_UART_SPI_UART.c ****             uint32 intSourceMask;
 226:.\Generated_Source\PSoC4/Arduino_UART_SPI_UART.c ****         #endif /* (Arduino_UART_INTERNAL_TX_SW_BUFFER_CONST) */
 227:.\Generated_Source\PSoC4/Arduino_UART_SPI_UART.c **** 
 228:.\Generated_Source\PSoC4/Arduino_UART_SPI_UART.c ****         #if(Arduino_UART_CHECK_TX_SW_BUFFER)
 229:.\Generated_Source\PSoC4/Arduino_UART_SPI_UART.c ****         {
 230:.\Generated_Source\PSoC4/Arduino_UART_SPI_UART.c ****             /* Head index to put data */
 231:.\Generated_Source\PSoC4/Arduino_UART_SPI_UART.c ****             locHead = (Arduino_UART_txBufferHead + 1u);
 232:.\Generated_Source\PSoC4/Arduino_UART_SPI_UART.c **** 
 233:.\Generated_Source\PSoC4/Arduino_UART_SPI_UART.c ****             /* Adjust TX software buffer index */
 234:.\Generated_Source\PSoC4/Arduino_UART_SPI_UART.c ****             if(Arduino_UART_TX_BUFFER_SIZE == locHead)
 235:.\Generated_Source\PSoC4/Arduino_UART_SPI_UART.c ****             {
 236:.\Generated_Source\PSoC4/Arduino_UART_SPI_UART.c ****                 locHead = 0u;
 237:.\Generated_Source\PSoC4/Arduino_UART_SPI_UART.c ****             }
 238:.\Generated_Source\PSoC4/Arduino_UART_SPI_UART.c **** 
 239:.\Generated_Source\PSoC4/Arduino_UART_SPI_UART.c ****             while(locHead == Arduino_UART_txBufferTail)
 240:.\Generated_Source\PSoC4/Arduino_UART_SPI_UART.c ****             {
 241:.\Generated_Source\PSoC4/Arduino_UART_SPI_UART.c ****                 /* Wait for space in TX software buffer */
 242:.\Generated_Source\PSoC4/Arduino_UART_SPI_UART.c ****             }
 243:.\Generated_Source\PSoC4/Arduino_UART_SPI_UART.c **** 
 244:.\Generated_Source\PSoC4/Arduino_UART_SPI_UART.c ****             /* TX software buffer has at least one room */
 245:.\Generated_Source\PSoC4/Arduino_UART_SPI_UART.c **** 
 246:.\Generated_Source\PSoC4/Arduino_UART_SPI_UART.c ****             if((Arduino_UART_txBufferHead == Arduino_UART_txBufferTail) &&
 247:.\Generated_Source\PSoC4/Arduino_UART_SPI_UART.c ****                (Arduino_UART_SPI_UART_FIFO_SIZE != Arduino_UART_GET_TX_FIFO_ENTRIES))
 248:.\Generated_Source\PSoC4/Arduino_UART_SPI_UART.c ****             {
 249:.\Generated_Source\PSoC4/Arduino_UART_SPI_UART.c ****                 /* TX software buffer is empty: put data directly in TX FIFO */
 250:.\Generated_Source\PSoC4/Arduino_UART_SPI_UART.c ****                 Arduino_UART_TX_FIFO_WR_REG = txData;
 251:.\Generated_Source\PSoC4/Arduino_UART_SPI_UART.c ****             }
 252:.\Generated_Source\PSoC4/Arduino_UART_SPI_UART.c ****             /* Put data in TX software buffer */
 253:.\Generated_Source\PSoC4/Arduino_UART_SPI_UART.c ****             else
 254:.\Generated_Source\PSoC4/Arduino_UART_SPI_UART.c ****             {
 255:.\Generated_Source\PSoC4/Arduino_UART_SPI_UART.c ****                 /* Clear old status of INTR_TX_NOT_FULL. It sets at the end of transfer when TX FIF
 256:.\Generated_Source\PSoC4/Arduino_UART_SPI_UART.c ****                 Arduino_UART_ClearTxInterruptSource(Arduino_UART_INTR_TX_NOT_FULL);
 257:.\Generated_Source\PSoC4/Arduino_UART_SPI_UART.c **** 
 258:.\Generated_Source\PSoC4/Arduino_UART_SPI_UART.c ****                 Arduino_UART_PutWordInTxBuffer(locHead, txData);
 259:.\Generated_Source\PSoC4/Arduino_UART_SPI_UART.c **** 
 260:.\Generated_Source\PSoC4/Arduino_UART_SPI_UART.c ****                 Arduino_UART_txBufferHead = locHead;
 261:.\Generated_Source\PSoC4/Arduino_UART_SPI_UART.c **** 
 262:.\Generated_Source\PSoC4/Arduino_UART_SPI_UART.c ****                 /* Enable interrupt to transmit */
 263:.\Generated_Source\PSoC4/Arduino_UART_SPI_UART.c ****                 intSourceMask  = Arduino_UART_INTR_TX_NOT_FULL;
 264:.\Generated_Source\PSoC4/Arduino_UART_SPI_UART.c ****                 intSourceMask |= Arduino_UART_GetTxInterruptMode();
 265:.\Generated_Source\PSoC4/Arduino_UART_SPI_UART.c ****                 Arduino_UART_SpiUartEnableIntTx(intSourceMask);
 266:.\Generated_Source\PSoC4/Arduino_UART_SPI_UART.c ****             }
 267:.\Generated_Source\PSoC4/Arduino_UART_SPI_UART.c ****         }
 268:.\Generated_Source\PSoC4/Arduino_UART_SPI_UART.c ****         #else
 269:.\Generated_Source\PSoC4/Arduino_UART_SPI_UART.c ****         {
 270:.\Generated_Source\PSoC4/Arduino_UART_SPI_UART.c ****             while(Arduino_UART_SPI_UART_FIFO_SIZE == Arduino_UART_GET_TX_FIFO_ENTRIES)
 243              		.loc 1 270 0
ARM GAS  C:\Users\Samuel\AppData\Local\Temp\ccqqIa5p.s 			page 10


 244 0008 C046     		mov	r8, r8
 245              	.L17:
 246              		.loc 1 270 0 is_stmt 0 discriminator 1
 247 000a 064B     		ldr	r3, .L18
 248 000c 1A68     		ldr	r2, [r3]
 249 000e 0F23     		mov	r3, #15
 250 0010 1340     		and	r3, r2
 251 0012 082B     		cmp	r3, #8
 252 0014 F9D0     		beq	.L17
 271:.\Generated_Source\PSoC4/Arduino_UART_SPI_UART.c ****             {
 272:.\Generated_Source\PSoC4/Arduino_UART_SPI_UART.c ****                 /* Block while TX FIFO is FULL */
 273:.\Generated_Source\PSoC4/Arduino_UART_SPI_UART.c ****             }
 274:.\Generated_Source\PSoC4/Arduino_UART_SPI_UART.c **** 
 275:.\Generated_Source\PSoC4/Arduino_UART_SPI_UART.c ****             Arduino_UART_TX_FIFO_WR_REG = txData;
 253              		.loc 1 275 0 is_stmt 1
 254 0016 044B     		ldr	r3, .L18+4
 255 0018 7A68     		ldr	r2, [r7, #4]
 256 001a 1A60     		str	r2, [r3]
 276:.\Generated_Source\PSoC4/Arduino_UART_SPI_UART.c ****         }
 277:.\Generated_Source\PSoC4/Arduino_UART_SPI_UART.c ****         #endif
 278:.\Generated_Source\PSoC4/Arduino_UART_SPI_UART.c ****     }
 257              		.loc 1 278 0
 258 001c BD46     		mov	sp, r7
 259 001e 02B0     		add	sp, sp, #8
 260              		@ sp needed
 261 0020 80BD     		pop	{r7, pc}
 262              	.L19:
 263 0022 C046     		.align	2
 264              	.L18:
 265 0024 08020740 		.word	1074201096
 266 0028 40020740 		.word	1074201152
 267              		.cfi_endproc
 268              	.LFE3:
 269              		.size	Arduino_UART_SpiUartWriteTxData, .-Arduino_UART_SpiUartWriteTxData
 270              		.section	.text.Arduino_UART_SpiUartPutArray,"ax",%progbits
 271              		.align	2
 272              		.global	Arduino_UART_SpiUartPutArray
 273              		.code	16
 274              		.thumb_func
 275              		.type	Arduino_UART_SpiUartPutArray, %function
 276              	Arduino_UART_SpiUartPutArray:
 277              	.LFB4:
 279:.\Generated_Source\PSoC4/Arduino_UART_SPI_UART.c **** 
 280:.\Generated_Source\PSoC4/Arduino_UART_SPI_UART.c **** 
 281:.\Generated_Source\PSoC4/Arduino_UART_SPI_UART.c ****     /*******************************************************************************
 282:.\Generated_Source\PSoC4/Arduino_UART_SPI_UART.c ****     * Function Name: Arduino_UART_SpiUartPutArray
 283:.\Generated_Source\PSoC4/Arduino_UART_SPI_UART.c ****     ********************************************************************************
 284:.\Generated_Source\PSoC4/Arduino_UART_SPI_UART.c ****     *
 285:.\Generated_Source\PSoC4/Arduino_UART_SPI_UART.c ****     * Summary:
 286:.\Generated_Source\PSoC4/Arduino_UART_SPI_UART.c ****     *  Places an array of data into the transmit buffer to be sent.
 287:.\Generated_Source\PSoC4/Arduino_UART_SPI_UART.c ****     *  This function is blocking and waits until there is a space available to put
 288:.\Generated_Source\PSoC4/Arduino_UART_SPI_UART.c ****     *  all the requested data in the transmit buffer. The array size can be greater
 289:.\Generated_Source\PSoC4/Arduino_UART_SPI_UART.c ****     *  than transmit buffer size.
 290:.\Generated_Source\PSoC4/Arduino_UART_SPI_UART.c ****     *
 291:.\Generated_Source\PSoC4/Arduino_UART_SPI_UART.c ****     * Parameters:
 292:.\Generated_Source\PSoC4/Arduino_UART_SPI_UART.c ****     *  wrBuf:  pointer to an array with data to be placed in transmit buffer.
 293:.\Generated_Source\PSoC4/Arduino_UART_SPI_UART.c ****     *  count:  number of data elements to be placed in the transmit buffer.
ARM GAS  C:\Users\Samuel\AppData\Local\Temp\ccqqIa5p.s 			page 11


 294:.\Generated_Source\PSoC4/Arduino_UART_SPI_UART.c ****     *
 295:.\Generated_Source\PSoC4/Arduino_UART_SPI_UART.c ****     * Return:
 296:.\Generated_Source\PSoC4/Arduino_UART_SPI_UART.c ****     *  None
 297:.\Generated_Source\PSoC4/Arduino_UART_SPI_UART.c ****     *
 298:.\Generated_Source\PSoC4/Arduino_UART_SPI_UART.c ****     *******************************************************************************/
 299:.\Generated_Source\PSoC4/Arduino_UART_SPI_UART.c ****     void Arduino_UART_SpiUartPutArray(const uint8 wrBuf[], uint32 count)
 300:.\Generated_Source\PSoC4/Arduino_UART_SPI_UART.c ****     {
 278              		.loc 1 300 0
 279              		.cfi_startproc
 280 0000 80B5     		push	{r7, lr}
 281              		.cfi_def_cfa_offset 8
 282              		.cfi_offset 7, -8
 283              		.cfi_offset 14, -4
 284 0002 84B0     		sub	sp, sp, #16
 285              		.cfi_def_cfa_offset 24
 286 0004 00AF     		add	r7, sp, #0
 287              		.cfi_def_cfa_register 7
 288 0006 7860     		str	r0, [r7, #4]
 289 0008 3960     		str	r1, [r7]
 301:.\Generated_Source\PSoC4/Arduino_UART_SPI_UART.c ****         uint32 i;
 302:.\Generated_Source\PSoC4/Arduino_UART_SPI_UART.c **** 
 303:.\Generated_Source\PSoC4/Arduino_UART_SPI_UART.c ****         for(i=0u; i < count; i++)
 290              		.loc 1 303 0
 291 000a 0023     		mov	r3, #0
 292 000c FB60     		str	r3, [r7, #12]
 293 000e 09E0     		b	.L21
 294              	.L22:
 304:.\Generated_Source\PSoC4/Arduino_UART_SPI_UART.c ****         {
 305:.\Generated_Source\PSoC4/Arduino_UART_SPI_UART.c ****             Arduino_UART_SpiUartWriteTxData((uint32) wrBuf[i]);
 295              		.loc 1 305 0 discriminator 2
 296 0010 7A68     		ldr	r2, [r7, #4]
 297 0012 FB68     		ldr	r3, [r7, #12]
 298 0014 D318     		add	r3, r2, r3
 299 0016 1B78     		ldrb	r3, [r3]
 300 0018 181C     		mov	r0, r3
 301 001a FFF7FEFF 		bl	Arduino_UART_SpiUartWriteTxData
 303:.\Generated_Source\PSoC4/Arduino_UART_SPI_UART.c ****         for(i=0u; i < count; i++)
 302              		.loc 1 303 0 discriminator 2
 303 001e FB68     		ldr	r3, [r7, #12]
 304 0020 0133     		add	r3, r3, #1
 305 0022 FB60     		str	r3, [r7, #12]
 306              	.L21:
 303:.\Generated_Source\PSoC4/Arduino_UART_SPI_UART.c ****         for(i=0u; i < count; i++)
 307              		.loc 1 303 0 is_stmt 0 discriminator 1
 308 0024 FA68     		ldr	r2, [r7, #12]
 309 0026 3B68     		ldr	r3, [r7]
 310 0028 9A42     		cmp	r2, r3
 311 002a F1D3     		bcc	.L22
 306:.\Generated_Source\PSoC4/Arduino_UART_SPI_UART.c ****         }
 307:.\Generated_Source\PSoC4/Arduino_UART_SPI_UART.c ****     }
 312              		.loc 1 307 0 is_stmt 1
 313 002c BD46     		mov	sp, r7
 314 002e 04B0     		add	sp, sp, #16
 315              		@ sp needed
 316 0030 80BD     		pop	{r7, pc}
 317              		.cfi_endproc
 318              	.LFE4:
ARM GAS  C:\Users\Samuel\AppData\Local\Temp\ccqqIa5p.s 			page 12


 319              		.size	Arduino_UART_SpiUartPutArray, .-Arduino_UART_SpiUartPutArray
 320 0032 C046     		.section	.text.Arduino_UART_SpiUartGetTxBufferSize,"ax",%progbits
 321              		.align	2
 322              		.global	Arduino_UART_SpiUartGetTxBufferSize
 323              		.code	16
 324              		.thumb_func
 325              		.type	Arduino_UART_SpiUartGetTxBufferSize, %function
 326              	Arduino_UART_SpiUartGetTxBufferSize:
 327              	.LFB5:
 308:.\Generated_Source\PSoC4/Arduino_UART_SPI_UART.c **** 
 309:.\Generated_Source\PSoC4/Arduino_UART_SPI_UART.c **** 
 310:.\Generated_Source\PSoC4/Arduino_UART_SPI_UART.c ****     /*******************************************************************************
 311:.\Generated_Source\PSoC4/Arduino_UART_SPI_UART.c ****     * Function Name: Arduino_UART_SpiUartGetTxBufferSize
 312:.\Generated_Source\PSoC4/Arduino_UART_SPI_UART.c ****     ********************************************************************************
 313:.\Generated_Source\PSoC4/Arduino_UART_SPI_UART.c ****     *
 314:.\Generated_Source\PSoC4/Arduino_UART_SPI_UART.c ****     * Summary:
 315:.\Generated_Source\PSoC4/Arduino_UART_SPI_UART.c ****     * Returns the number of elements currently in the transmit buffer.
 316:.\Generated_Source\PSoC4/Arduino_UART_SPI_UART.c ****     *  - TX software buffer is disabled: returns the number of used entries in
 317:.\Generated_Source\PSoC4/Arduino_UART_SPI_UART.c ****     *    TX FIFO.
 318:.\Generated_Source\PSoC4/Arduino_UART_SPI_UART.c ****     *  - TX software buffer is enabled: returns the number of elements currently
 319:.\Generated_Source\PSoC4/Arduino_UART_SPI_UART.c ****     *    used in the transmit buffer. This number does not include used entries in
 320:.\Generated_Source\PSoC4/Arduino_UART_SPI_UART.c ****     *    the TX FIFO. The transmit buffer size is zero until the TX FIFO is
 321:.\Generated_Source\PSoC4/Arduino_UART_SPI_UART.c ****     *    not full.
 322:.\Generated_Source\PSoC4/Arduino_UART_SPI_UART.c ****     *
 323:.\Generated_Source\PSoC4/Arduino_UART_SPI_UART.c ****     * Parameters:
 324:.\Generated_Source\PSoC4/Arduino_UART_SPI_UART.c ****     *  None
 325:.\Generated_Source\PSoC4/Arduino_UART_SPI_UART.c ****     *
 326:.\Generated_Source\PSoC4/Arduino_UART_SPI_UART.c ****     * Return:
 327:.\Generated_Source\PSoC4/Arduino_UART_SPI_UART.c ****     *  Number of data elements ready to transmit.
 328:.\Generated_Source\PSoC4/Arduino_UART_SPI_UART.c ****     *
 329:.\Generated_Source\PSoC4/Arduino_UART_SPI_UART.c ****     *******************************************************************************/
 330:.\Generated_Source\PSoC4/Arduino_UART_SPI_UART.c ****     uint32 Arduino_UART_SpiUartGetTxBufferSize(void)
 331:.\Generated_Source\PSoC4/Arduino_UART_SPI_UART.c ****     {
 328              		.loc 1 331 0
 329              		.cfi_startproc
 330 0000 80B5     		push	{r7, lr}
 331              		.cfi_def_cfa_offset 8
 332              		.cfi_offset 7, -8
 333              		.cfi_offset 14, -4
 334 0002 82B0     		sub	sp, sp, #8
 335              		.cfi_def_cfa_offset 16
 336 0004 00AF     		add	r7, sp, #0
 337              		.cfi_def_cfa_register 7
 332:.\Generated_Source\PSoC4/Arduino_UART_SPI_UART.c ****         uint32 size;
 333:.\Generated_Source\PSoC4/Arduino_UART_SPI_UART.c ****         #if(Arduino_UART_INTERNAL_TX_SW_BUFFER_CONST)
 334:.\Generated_Source\PSoC4/Arduino_UART_SPI_UART.c ****             uint32 locTail;
 335:.\Generated_Source\PSoC4/Arduino_UART_SPI_UART.c ****         #endif /* (Arduino_UART_INTERNAL_TX_SW_BUFFER_CONST) */
 336:.\Generated_Source\PSoC4/Arduino_UART_SPI_UART.c **** 
 337:.\Generated_Source\PSoC4/Arduino_UART_SPI_UART.c ****         #if(Arduino_UART_CHECK_TX_SW_BUFFER)
 338:.\Generated_Source\PSoC4/Arduino_UART_SPI_UART.c ****         {
 339:.\Generated_Source\PSoC4/Arduino_UART_SPI_UART.c ****             /* Get current Tail index */
 340:.\Generated_Source\PSoC4/Arduino_UART_SPI_UART.c ****             locTail = Arduino_UART_txBufferTail;
 341:.\Generated_Source\PSoC4/Arduino_UART_SPI_UART.c **** 
 342:.\Generated_Source\PSoC4/Arduino_UART_SPI_UART.c ****             if(Arduino_UART_txBufferHead >= locTail)
 343:.\Generated_Source\PSoC4/Arduino_UART_SPI_UART.c ****             {
 344:.\Generated_Source\PSoC4/Arduino_UART_SPI_UART.c ****                 size = (Arduino_UART_txBufferHead - locTail);
 345:.\Generated_Source\PSoC4/Arduino_UART_SPI_UART.c ****             }
ARM GAS  C:\Users\Samuel\AppData\Local\Temp\ccqqIa5p.s 			page 13


 346:.\Generated_Source\PSoC4/Arduino_UART_SPI_UART.c ****             else
 347:.\Generated_Source\PSoC4/Arduino_UART_SPI_UART.c ****             {
 348:.\Generated_Source\PSoC4/Arduino_UART_SPI_UART.c ****                 size = (Arduino_UART_txBufferHead + (Arduino_UART_TX_BUFFER_SIZE - locTail));
 349:.\Generated_Source\PSoC4/Arduino_UART_SPI_UART.c ****             }
 350:.\Generated_Source\PSoC4/Arduino_UART_SPI_UART.c ****         }
 351:.\Generated_Source\PSoC4/Arduino_UART_SPI_UART.c ****         #else
 352:.\Generated_Source\PSoC4/Arduino_UART_SPI_UART.c ****         {
 353:.\Generated_Source\PSoC4/Arduino_UART_SPI_UART.c ****             size = Arduino_UART_GET_TX_FIFO_ENTRIES;
 338              		.loc 1 353 0
 339 0006 054B     		ldr	r3, .L25
 340 0008 1A68     		ldr	r2, [r3]
 341 000a 0F23     		mov	r3, #15
 342 000c 1340     		and	r3, r2
 343 000e 7B60     		str	r3, [r7, #4]
 354:.\Generated_Source\PSoC4/Arduino_UART_SPI_UART.c ****         }
 355:.\Generated_Source\PSoC4/Arduino_UART_SPI_UART.c ****         #endif
 356:.\Generated_Source\PSoC4/Arduino_UART_SPI_UART.c **** 
 357:.\Generated_Source\PSoC4/Arduino_UART_SPI_UART.c ****         return(size);
 344              		.loc 1 357 0
 345 0010 7B68     		ldr	r3, [r7, #4]
 358:.\Generated_Source\PSoC4/Arduino_UART_SPI_UART.c ****     }
 346              		.loc 1 358 0
 347 0012 181C     		mov	r0, r3
 348 0014 BD46     		mov	sp, r7
 349 0016 02B0     		add	sp, sp, #8
 350              		@ sp needed
 351 0018 80BD     		pop	{r7, pc}
 352              	.L26:
 353 001a C046     		.align	2
 354              	.L25:
 355 001c 08020740 		.word	1074201096
 356              		.cfi_endproc
 357              	.LFE5:
 358              		.size	Arduino_UART_SpiUartGetTxBufferSize, .-Arduino_UART_SpiUartGetTxBufferSize
 359              		.section	.text.Arduino_UART_SpiUartClearTxBuffer,"ax",%progbits
 360              		.align	2
 361              		.global	Arduino_UART_SpiUartClearTxBuffer
 362              		.code	16
 363              		.thumb_func
 364              		.type	Arduino_UART_SpiUartClearTxBuffer, %function
 365              	Arduino_UART_SpiUartClearTxBuffer:
 366              	.LFB6:
 359:.\Generated_Source\PSoC4/Arduino_UART_SPI_UART.c **** 
 360:.\Generated_Source\PSoC4/Arduino_UART_SPI_UART.c **** 
 361:.\Generated_Source\PSoC4/Arduino_UART_SPI_UART.c ****     /*******************************************************************************
 362:.\Generated_Source\PSoC4/Arduino_UART_SPI_UART.c ****     * Function Name: Arduino_UART_SpiUartClearTxBuffer
 363:.\Generated_Source\PSoC4/Arduino_UART_SPI_UART.c ****     ********************************************************************************
 364:.\Generated_Source\PSoC4/Arduino_UART_SPI_UART.c ****     *
 365:.\Generated_Source\PSoC4/Arduino_UART_SPI_UART.c ****     * Summary:
 366:.\Generated_Source\PSoC4/Arduino_UART_SPI_UART.c ****     *  Clears the transmit buffer and TX FIFO.
 367:.\Generated_Source\PSoC4/Arduino_UART_SPI_UART.c ****     *
 368:.\Generated_Source\PSoC4/Arduino_UART_SPI_UART.c ****     * Parameters:
 369:.\Generated_Source\PSoC4/Arduino_UART_SPI_UART.c ****     *  None
 370:.\Generated_Source\PSoC4/Arduino_UART_SPI_UART.c ****     *
 371:.\Generated_Source\PSoC4/Arduino_UART_SPI_UART.c ****     * Return:
 372:.\Generated_Source\PSoC4/Arduino_UART_SPI_UART.c ****     *  None
 373:.\Generated_Source\PSoC4/Arduino_UART_SPI_UART.c ****     *
ARM GAS  C:\Users\Samuel\AppData\Local\Temp\ccqqIa5p.s 			page 14


 374:.\Generated_Source\PSoC4/Arduino_UART_SPI_UART.c ****     *******************************************************************************/
 375:.\Generated_Source\PSoC4/Arduino_UART_SPI_UART.c ****     void Arduino_UART_SpiUartClearTxBuffer(void)
 376:.\Generated_Source\PSoC4/Arduino_UART_SPI_UART.c ****     {
 367              		.loc 1 376 0
 368              		.cfi_startproc
 369 0000 80B5     		push	{r7, lr}
 370              		.cfi_def_cfa_offset 8
 371              		.cfi_offset 7, -8
 372              		.cfi_offset 14, -4
 373 0002 00AF     		add	r7, sp, #0
 374              		.cfi_def_cfa_register 7
 377:.\Generated_Source\PSoC4/Arduino_UART_SPI_UART.c ****         #if(Arduino_UART_INTERNAL_TX_SW_BUFFER_CONST)
 378:.\Generated_Source\PSoC4/Arduino_UART_SPI_UART.c ****             uint32 intSourceMask;
 379:.\Generated_Source\PSoC4/Arduino_UART_SPI_UART.c ****         #endif /* (Arduino_UART_INTERNAL_TX_SW_BUFFER_CONST) */
 380:.\Generated_Source\PSoC4/Arduino_UART_SPI_UART.c **** 
 381:.\Generated_Source\PSoC4/Arduino_UART_SPI_UART.c ****         #if(Arduino_UART_CHECK_TX_SW_BUFFER)
 382:.\Generated_Source\PSoC4/Arduino_UART_SPI_UART.c ****         {
 383:.\Generated_Source\PSoC4/Arduino_UART_SPI_UART.c ****             intSourceMask = Arduino_UART_SpiUartDisableIntTx();
 384:.\Generated_Source\PSoC4/Arduino_UART_SPI_UART.c **** 
 385:.\Generated_Source\PSoC4/Arduino_UART_SPI_UART.c ****             Arduino_UART_CLEAR_TX_FIFO;
 386:.\Generated_Source\PSoC4/Arduino_UART_SPI_UART.c **** 
 387:.\Generated_Source\PSoC4/Arduino_UART_SPI_UART.c ****             /* Flush TX software buffer */
 388:.\Generated_Source\PSoC4/Arduino_UART_SPI_UART.c ****             Arduino_UART_txBufferHead = Arduino_UART_txBufferTail;
 389:.\Generated_Source\PSoC4/Arduino_UART_SPI_UART.c **** 
 390:.\Generated_Source\PSoC4/Arduino_UART_SPI_UART.c ****             /* End TX transfer if it is in progress */
 391:.\Generated_Source\PSoC4/Arduino_UART_SPI_UART.c ****             intSourceMask &= (uint32) ~Arduino_UART_INTR_TX_NOT_FULL;
 392:.\Generated_Source\PSoC4/Arduino_UART_SPI_UART.c **** 
 393:.\Generated_Source\PSoC4/Arduino_UART_SPI_UART.c ****             Arduino_UART_SpiUartEnableIntTx(intSourceMask);
 394:.\Generated_Source\PSoC4/Arduino_UART_SPI_UART.c ****         }
 395:.\Generated_Source\PSoC4/Arduino_UART_SPI_UART.c ****         #else
 396:.\Generated_Source\PSoC4/Arduino_UART_SPI_UART.c ****         {
 397:.\Generated_Source\PSoC4/Arduino_UART_SPI_UART.c ****             Arduino_UART_CLEAR_TX_FIFO;
 375              		.loc 1 397 0
 376 0004 074B     		ldr	r3, .L28
 377 0006 074A     		ldr	r2, .L28
 378 0008 1268     		ldr	r2, [r2]
 379 000a 8021     		mov	r1, #128
 380 000c 4902     		lsl	r1, r1, #9
 381 000e 0A43     		orr	r2, r1
 382 0010 1A60     		str	r2, [r3]
 383 0012 044B     		ldr	r3, .L28
 384 0014 034A     		ldr	r2, .L28
 385 0016 1168     		ldr	r1, [r2]
 386 0018 034A     		ldr	r2, .L28+4
 387 001a 0A40     		and	r2, r1
 388 001c 1A60     		str	r2, [r3]
 398:.\Generated_Source\PSoC4/Arduino_UART_SPI_UART.c ****         }
 399:.\Generated_Source\PSoC4/Arduino_UART_SPI_UART.c ****         #endif
 400:.\Generated_Source\PSoC4/Arduino_UART_SPI_UART.c ****     }
 389              		.loc 1 400 0
 390 001e BD46     		mov	sp, r7
 391              		@ sp needed
 392 0020 80BD     		pop	{r7, pc}
 393              	.L29:
 394 0022 C046     		.align	2
 395              	.L28:
 396 0024 04020740 		.word	1074201092
ARM GAS  C:\Users\Samuel\AppData\Local\Temp\ccqqIa5p.s 			page 15


 397 0028 FFFFFEFF 		.word	-65537
 398              		.cfi_endproc
 399              	.LFE6:
 400              		.size	Arduino_UART_SpiUartClearTxBuffer, .-Arduino_UART_SpiUartClearTxBuffer
 401              		.section	.text.Arduino_UART_SpiUartDisableIntRx,"ax",%progbits
 402              		.align	2
 403              		.global	Arduino_UART_SpiUartDisableIntRx
 404              		.code	16
 405              		.thumb_func
 406              		.type	Arduino_UART_SpiUartDisableIntRx, %function
 407              	Arduino_UART_SpiUartDisableIntRx:
 408              	.LFB7:
 401:.\Generated_Source\PSoC4/Arduino_UART_SPI_UART.c **** 
 402:.\Generated_Source\PSoC4/Arduino_UART_SPI_UART.c **** #endif /* (Arduino_UART_TX_DIRECTION) */
 403:.\Generated_Source\PSoC4/Arduino_UART_SPI_UART.c **** 
 404:.\Generated_Source\PSoC4/Arduino_UART_SPI_UART.c **** 
 405:.\Generated_Source\PSoC4/Arduino_UART_SPI_UART.c **** /*******************************************************************************
 406:.\Generated_Source\PSoC4/Arduino_UART_SPI_UART.c **** * Function Name: Arduino_UART_SpiUartDisableIntRx
 407:.\Generated_Source\PSoC4/Arduino_UART_SPI_UART.c **** ********************************************************************************
 408:.\Generated_Source\PSoC4/Arduino_UART_SPI_UART.c **** *
 409:.\Generated_Source\PSoC4/Arduino_UART_SPI_UART.c **** * Summary:
 410:.\Generated_Source\PSoC4/Arduino_UART_SPI_UART.c **** *  Disables the RX interrupt sources.
 411:.\Generated_Source\PSoC4/Arduino_UART_SPI_UART.c **** *
 412:.\Generated_Source\PSoC4/Arduino_UART_SPI_UART.c **** * Parameters:
 413:.\Generated_Source\PSoC4/Arduino_UART_SPI_UART.c **** *  None
 414:.\Generated_Source\PSoC4/Arduino_UART_SPI_UART.c **** *
 415:.\Generated_Source\PSoC4/Arduino_UART_SPI_UART.c **** * Return:
 416:.\Generated_Source\PSoC4/Arduino_UART_SPI_UART.c **** *  Returns the RX interrupt sources enabled before the function call.
 417:.\Generated_Source\PSoC4/Arduino_UART_SPI_UART.c **** *
 418:.\Generated_Source\PSoC4/Arduino_UART_SPI_UART.c **** *******************************************************************************/
 419:.\Generated_Source\PSoC4/Arduino_UART_SPI_UART.c **** uint32 Arduino_UART_SpiUartDisableIntRx(void)
 420:.\Generated_Source\PSoC4/Arduino_UART_SPI_UART.c **** {
 409              		.loc 1 420 0
 410              		.cfi_startproc
 411 0000 80B5     		push	{r7, lr}
 412              		.cfi_def_cfa_offset 8
 413              		.cfi_offset 7, -8
 414              		.cfi_offset 14, -4
 415 0002 82B0     		sub	sp, sp, #8
 416              		.cfi_def_cfa_offset 16
 417 0004 00AF     		add	r7, sp, #0
 418              		.cfi_def_cfa_register 7
 421:.\Generated_Source\PSoC4/Arduino_UART_SPI_UART.c ****     uint32 intSource;
 422:.\Generated_Source\PSoC4/Arduino_UART_SPI_UART.c **** 
 423:.\Generated_Source\PSoC4/Arduino_UART_SPI_UART.c ****     intSource = Arduino_UART_GetRxInterruptMode();
 419              		.loc 1 423 0
 420 0006 054B     		ldr	r3, .L32
 421 0008 1B68     		ldr	r3, [r3]
 422 000a 7B60     		str	r3, [r7, #4]
 424:.\Generated_Source\PSoC4/Arduino_UART_SPI_UART.c **** 
 425:.\Generated_Source\PSoC4/Arduino_UART_SPI_UART.c ****     Arduino_UART_SetRxInterruptMode(Arduino_UART_NO_INTR_SOURCES);
 423              		.loc 1 425 0
 424 000c 034B     		ldr	r3, .L32
 425 000e 0022     		mov	r2, #0
 426 0010 1A60     		str	r2, [r3]
 426:.\Generated_Source\PSoC4/Arduino_UART_SPI_UART.c **** 
 427:.\Generated_Source\PSoC4/Arduino_UART_SPI_UART.c ****     return(intSource);
ARM GAS  C:\Users\Samuel\AppData\Local\Temp\ccqqIa5p.s 			page 16


 427              		.loc 1 427 0
 428 0012 7B68     		ldr	r3, [r7, #4]
 428:.\Generated_Source\PSoC4/Arduino_UART_SPI_UART.c **** }
 429              		.loc 1 428 0
 430 0014 181C     		mov	r0, r3
 431 0016 BD46     		mov	sp, r7
 432 0018 02B0     		add	sp, sp, #8
 433              		@ sp needed
 434 001a 80BD     		pop	{r7, pc}
 435              	.L33:
 436              		.align	2
 437              	.L32:
 438 001c C80F0740 		.word	1074204616
 439              		.cfi_endproc
 440              	.LFE7:
 441              		.size	Arduino_UART_SpiUartDisableIntRx, .-Arduino_UART_SpiUartDisableIntRx
 442              		.section	.text.Arduino_UART_SpiUartDisableIntTx,"ax",%progbits
 443              		.align	2
 444              		.global	Arduino_UART_SpiUartDisableIntTx
 445              		.code	16
 446              		.thumb_func
 447              		.type	Arduino_UART_SpiUartDisableIntTx, %function
 448              	Arduino_UART_SpiUartDisableIntTx:
 449              	.LFB8:
 429:.\Generated_Source\PSoC4/Arduino_UART_SPI_UART.c **** 
 430:.\Generated_Source\PSoC4/Arduino_UART_SPI_UART.c **** 
 431:.\Generated_Source\PSoC4/Arduino_UART_SPI_UART.c **** /*******************************************************************************
 432:.\Generated_Source\PSoC4/Arduino_UART_SPI_UART.c **** * Function Name: Arduino_UART_SpiUartDisableIntTx
 433:.\Generated_Source\PSoC4/Arduino_UART_SPI_UART.c **** ********************************************************************************
 434:.\Generated_Source\PSoC4/Arduino_UART_SPI_UART.c **** *
 435:.\Generated_Source\PSoC4/Arduino_UART_SPI_UART.c **** * Summary:
 436:.\Generated_Source\PSoC4/Arduino_UART_SPI_UART.c **** *  Disables TX interrupt sources.
 437:.\Generated_Source\PSoC4/Arduino_UART_SPI_UART.c **** *
 438:.\Generated_Source\PSoC4/Arduino_UART_SPI_UART.c **** * Parameters:
 439:.\Generated_Source\PSoC4/Arduino_UART_SPI_UART.c **** *  None
 440:.\Generated_Source\PSoC4/Arduino_UART_SPI_UART.c **** *
 441:.\Generated_Source\PSoC4/Arduino_UART_SPI_UART.c **** * Return:
 442:.\Generated_Source\PSoC4/Arduino_UART_SPI_UART.c **** *  Returns TX interrupt sources enabled before function call.
 443:.\Generated_Source\PSoC4/Arduino_UART_SPI_UART.c **** *
 444:.\Generated_Source\PSoC4/Arduino_UART_SPI_UART.c **** *******************************************************************************/
 445:.\Generated_Source\PSoC4/Arduino_UART_SPI_UART.c **** uint32 Arduino_UART_SpiUartDisableIntTx(void)
 446:.\Generated_Source\PSoC4/Arduino_UART_SPI_UART.c **** {
 450              		.loc 1 446 0
 451              		.cfi_startproc
 452 0000 80B5     		push	{r7, lr}
 453              		.cfi_def_cfa_offset 8
 454              		.cfi_offset 7, -8
 455              		.cfi_offset 14, -4
 456 0002 82B0     		sub	sp, sp, #8
 457              		.cfi_def_cfa_offset 16
 458 0004 00AF     		add	r7, sp, #0
 459              		.cfi_def_cfa_register 7
 447:.\Generated_Source\PSoC4/Arduino_UART_SPI_UART.c ****     uint32 intSourceMask;
 448:.\Generated_Source\PSoC4/Arduino_UART_SPI_UART.c **** 
 449:.\Generated_Source\PSoC4/Arduino_UART_SPI_UART.c ****     intSourceMask = Arduino_UART_GetTxInterruptMode();
 460              		.loc 1 449 0
 461 0006 054B     		ldr	r3, .L36
ARM GAS  C:\Users\Samuel\AppData\Local\Temp\ccqqIa5p.s 			page 17


 462 0008 1B68     		ldr	r3, [r3]
 463 000a 7B60     		str	r3, [r7, #4]
 450:.\Generated_Source\PSoC4/Arduino_UART_SPI_UART.c **** 
 451:.\Generated_Source\PSoC4/Arduino_UART_SPI_UART.c ****     Arduino_UART_SetTxInterruptMode(Arduino_UART_NO_INTR_SOURCES);
 464              		.loc 1 451 0
 465 000c 034B     		ldr	r3, .L36
 466 000e 0022     		mov	r2, #0
 467 0010 1A60     		str	r2, [r3]
 452:.\Generated_Source\PSoC4/Arduino_UART_SPI_UART.c **** 
 453:.\Generated_Source\PSoC4/Arduino_UART_SPI_UART.c ****     return(intSourceMask);
 468              		.loc 1 453 0
 469 0012 7B68     		ldr	r3, [r7, #4]
 454:.\Generated_Source\PSoC4/Arduino_UART_SPI_UART.c **** }
 470              		.loc 1 454 0
 471 0014 181C     		mov	r0, r3
 472 0016 BD46     		mov	sp, r7
 473 0018 02B0     		add	sp, sp, #8
 474              		@ sp needed
 475 001a 80BD     		pop	{r7, pc}
 476              	.L37:
 477              		.align	2
 478              	.L36:
 479 001c 880F0740 		.word	1074204552
 480              		.cfi_endproc
 481              	.LFE8:
 482              		.size	Arduino_UART_SpiUartDisableIntTx, .-Arduino_UART_SpiUartDisableIntTx
 483              		.text
 484              	.Letext0:
 485              		.file 2 ".\\Generated_Source\\PSoC4/cytypes.h"